ASxxxx Linker V03.00/V05.40 + sdld,  page 1.
Hexadecimal  [32-Bits]

Area                                    Addr        Size        Decimal Bytes (Attributes)
--------------------------------        ----        ----        ------- ----- ------------
.  .ABS.                            00000000    00000000 =           0. bytes (ABS,CON)

      Value  Global                              Global Defined In Module
      -----  --------------------------------   ------------------------
     00000000  .__.ABS.                           
     00000000  _rRAMG                             
     00000000  l__BASE                         
     00000000  l__BSS                          
     00000000  l__CABS                         
     00000000  l__CODE_0                       
     00000000  l__CRASH_HEADER                 
     00000000  l__CRASH_SCRATCH                
     00000000  l__DABS                         
     00000000  l__HEADER                       
     00000000  l__HEADER_LCD                   
     00000000  l__HEADER_SIO                   
     00000000  l__HEADER_TIMER                 
     00000000  l__HEAP                         
     00000000  l__HEAP_END                     
     00000000  l__HRAM                         
     00000000  l__LIT                          
     00000000  s__CABS                         
     00000000  s__CRASH_HEADER                 
     00000000  s__CRASH_HEADER0                
     00000000  s__CRASH_HEADER1                
     00000000  s__CRASH_SCRATCH                
     00000000  s__CRASH_SCRATCH2               
     00000000  s__DABS                         
     00000000  s__HEADER                       
     00000000  s__HEADER0                      
     00000000  s__HEADER1                      
     00000000  s__HEADER10                     
     00000000  s__HEADER11                     
     00000000  s__HEADER2                      
     00000000  s__HEADER3                      
     00000000  s__HEADER4                      
     00000000  s__HEADER5                      
     00000000  s__HEADER6                      
     00000000  s__HEADER7                      
     00000000  s__HEADER8                      
     00000000  s__HEADER9                      
     00000000  s__HEADER_LCD                   
     00000000  s__HEADER_LCD0                  
     00000000  s__HEADER_SIO                   
     00000000  s__HEADER_SIO0                  
     00000000  s__HEADER_TIMER                 
     00000000  s__HEADER_TIMER0                
     00000000  s__HEADERa                      
     00000000  s__HEADERb                      
     00000000  s__HEADERc                      
     00000000  s__HEADERd                      
     00000000  s__HEADERe                      
     00000000  s__HEADERf                      
     00000000  s__HRAM                         
ASxxxx Linker V03.00/V05.40 + sdld,  page 2.
Hexadecimal  [32-Bits]

Area                                    Addr        Size        Decimal Bytes (Attributes)
--------------------------------        ----        ----        ------- ----- ------------
.  .ABS.                            00000000    00000000 =           0. bytes (ABS,CON)

      Value  Global                              Global Defined In Module
      -----  --------------------------------   ------------------------
     00000000  s__HRAM12                       
     00000001  ___bank_VM_SGB                     vm_sgb
     00000001  ___bank_scene_room_02_sprites      scene_room_02_sprites
     00000001  ___bank_song_ruins_Data            song_ruins_Data
     00000001  ___bank_song_start_menu_Data       song_start_menu_Data
     00000001  ___bank_trigger_38_interact        trigger_38_interact
     00000001  b_ui_draw_frame                    ui
     00000001  b_ui_draw_text_buffer_char         ui
     00000001  b_ui_init                          ui
     00000001  b_ui_load_tiles                    ui
     00000001  b_ui_run_menu                      ui
     00000001  b_ui_run_modal                     ui
     00000001  b_ui_set_start_tile                ui
     00000001  l__GSFINAL                      
     00000001  l__HEADER0                      
     00000001  l__HEADER5                      
     00000001  l__HEADERa                      
     00000001  l__HEADERb                      
     00000001  l__HEADERc                      
     00000001  l__HEADERe                      
     00000001  l__HEADERf                      
     00000002  ___bank_VM_MAIN                    vm
     00000002  ___bank_bg_room08_tilemap          bg_room08_tilemap
     00000002  ___bank_bg_room08_tilemap_attr     bg_room08_tilemap_attr
     00000002  ___bank_scene_room_03_sprites      scene_room_03_sprites
     00000002  ___bank_script_9                   script_9
     00000002  ___mute_mask_sound_voices_sav_00   sound_voices_sav
     00000002  ___mute_mask_sound_voices_sav_01   sound_voices_sav
     00000002  ___mute_mask_sound_voices_sav_03   sound_voices_sav
     00000002  ___mute_mask_sound_voices_sav_07   sound_voices_sav
     00000002  b_script_detach_hthread            vm
     00000002  b_script_execute                   vm
     00000002  b_script_runner_init               vm
     00000002  b_script_terminate                 vm
     00000002  b_vm_call                          vm
     00000002  b_vm_call_far                      vm
     00000002  b_vm_get_indirect                  vm
     00000002  b_vm_get_int16                     vm
     00000002  b_vm_get_int8                      vm
     00000002  b_vm_get_tlocal                    vm
     00000002  b_vm_get_uint8                     vm
     00000002  b_vm_idle                          vm
     00000002  b_vm_if                            vm
     00000002  b_vm_if_const                      vm
     00000002  b_vm_init_rng                      vm
     00000002  b_vm_invoke                        vm
     00000002  b_vm_join                          vm
     00000002  b_vm_jump                          vm
     00000002  b_vm_lock                          vm
     00000002  b_vm_loop                          vm
     00000002  b_vm_memcpy                        vm
ASxxxx Linker V03.00/V05.40 + sdld,  page 3.
Hexadecimal  [32-Bits]

Area                                    Addr        Size        Decimal Bytes (Attributes)
--------------------------------        ----        ----        ------- ----- ------------
.  .ABS.                            00000000    00000000 =           0. bytes (ABS,CON)

      Value  Global                              Global Defined In Module
      -----  --------------------------------   ------------------------
     00000002  b_vm_memset                        vm
     00000002  b_vm_poll_loaded                   vm
     00000002  b_vm_pop                           vm
     00000002  b_vm_push                          vm
     00000002  b_vm_push_reference                vm
     00000002  b_vm_push_value                    vm
     00000002  b_vm_push_value_ind                vm
     00000002  b_vm_raise                         vm
     00000002  b_vm_rand                          vm
     00000002  b_vm_reserve                       vm
     00000002  b_vm_ret                           vm
     00000002  b_vm_ret_far                       vm
     00000002  b_vm_set                           vm
     00000002  b_vm_set_const                     vm
     00000002  b_vm_set_const_int16               vm
     00000002  b_vm_set_const_int8                vm
     00000002  b_vm_set_indirect                  vm
     00000002  b_vm_set_int16                     vm
     00000002  b_vm_set_int8                      vm
     00000002  b_vm_set_uint8                     vm
     00000002  b_vm_terminate                     vm
     00000002  b_vm_test_terminate                vm
     00000002  b_vm_unlock                        vm
     00000002  b_wait_frames                      vm
     00000002  l__HEADER10                     
     00000002  l__HEADER6                      
     00000002  l__HEADERd                      
     00000003  ___bank_bg_room19_tilemap_attr     bg_room19_tilemap_attr
     00000003  ___bank_scene_gameover_init        scene_gameover_init
     00000003  ___bank_scene_room_08_collisions   scene_room_08_collisions
     00000003  b_platform_init                    platform
     00000003  b_platform_update                  platform
     00000003  l__HEADER9                      
     00000003  l__HEADER_LCD0                  
     00000003  l__HRAM12                       
     00000004  ___bank_ACTOR                      actor
     00000004  ___bank_VM_ACTOR                   vm_actor
     00000004  ___bank_VM_RTC                     vm_rtc
     00000004  ___bank_scene_room_09_triggers     scene_room_09_triggers
     00000004  ___bank_song_once_upon_a_time_Da   song_once_upon_a_time_Data
     00000004  b_activate_actor                   actor
     00000004  b_activate_actors_in_col           actor
     00000004  b_activate_actors_in_row           actor
     00000004  b_actor_at_tile                    actor
     00000004  b_actor_get_frame_offset           actor
     00000004  b_actor_in_front_of_player         actor
     00000004  b_actor_overlapping_bb             actor
     00000004  b_actor_overlapping_player         actor
     00000004  b_actor_set_anim_idle              actor
     00000004  b_actor_set_anim_moving            actor
     00000004  b_actor_set_dir                    actor
ASxxxx Linker V03.00/V05.40 + sdld,  page 4.
Hexadecimal  [32-Bits]

Area                                    Addr        Size        Decimal Bytes (Attributes)
--------------------------------        ----        ----        ------- ----- ------------
.  .ABS.                            00000000    00000000 =           0. bytes (ABS,CON)

      Value  Global                              Global Defined In Module
      -----  --------------------------------   ------------------------
     00000004  b_actor_set_frame_offset           actor
     00000004  b_actor_set_frames                 actor
     00000004  b_actors_handle_player_collision   actor
     00000004  b_actors_init                      actor
     00000004  b_check_collision_in_direction     actor
     00000004  b_deactivate_actor                 actor
     00000004  b_player_init                      actor
     00000004  b_vm_actor_activate                vm_actor
     00000004  b_vm_actor_begin_update            vm_actor
     00000004  b_vm_actor_deactivate              vm_actor
     00000004  b_vm_actor_emote                   vm_actor
     00000004  b_vm_actor_get_angle               vm_actor
     00000004  b_vm_actor_get_anim_frame          vm_actor
     00000004  b_vm_actor_get_dir                 vm_actor
     00000004  b_vm_actor_get_pos                 vm_actor
     00000004  b_vm_actor_move_cancel             vm_actor
     00000004  b_vm_actor_move_to                 vm_actor
     00000004  b_vm_actor_replace_tile            vm_actor
     00000004  b_vm_actor_set_anim                vm_actor
     00000004  b_vm_actor_set_anim_frame          vm_actor
     00000004  b_vm_actor_set_anim_set            vm_actor
     00000004  b_vm_actor_set_anim_tick           vm_actor
     00000004  b_vm_actor_set_bounds              vm_actor
     00000004  b_vm_actor_set_dir                 vm_actor
     00000004  b_vm_actor_set_flags               vm_actor
     00000004  b_vm_actor_set_move_speed          vm_actor
     00000004  b_vm_actor_set_pos                 vm_actor
     00000004  b_vm_actor_set_spritesheet         vm_actor
     00000004  b_vm_actor_set_spritesheet_by_re   vm_actor
     00000004  b_vm_actor_terminate_update        vm_actor
     00000004  b_vm_rtc_get                       vm_rtc
     00000004  b_vm_rtc_latch                     vm_rtc
     00000004  b_vm_rtc_set                       vm_rtc
     00000004  b_vm_rtc_start                     vm_rtc
     00000004  l__CRASH_HEADER1                
     00000004  l__HEADER_SIO0                  
     00000004  l__HEADER_TIMER0                
     00000005  ___bank_bg_room19_tilemap          bg_room19_tilemap
     00000005  ___bank_scene_room_19_collisions   scene_room_19_collisions
     00000005  ___bank_script_input_1             script_input_1
     00000005  b_inv_add_item                     InventoryEnginePlugin
     00000005  b_inv_drop_item                    InventoryEnginePlugin
     00000005  b_inv_get_item_count               InventoryEnginePlugin
     00000005  b_inv_load_item_name               InventoryEnginePlugin
     00000005  b_inv_load_pause_menu              InventoryEnginePlugin
     00000005  b_inv_obtain_item                  InventoryEnginePlugin
     00000005  b_inv_read_item                    InventoryEnginePlugin
     00000005  b_inv_remove_item                  InventoryEnginePlugin
     00000005  b_inv_use_item                     InventoryEnginePlugin
     00000005  b_inv_write_item_desc              InventoryEnginePlugin
     00000005  b_topdown_init                     topdown
ASxxxx Linker V03.00/V05.40 + sdld,  page 5.
Hexadecimal  [32-Bits]

Area                                    Addr        Size        Decimal Bytes (Attributes)
--------------------------------        ----        ----        ------- ----- ------------
.  .ABS.                            00000000    00000000 =           0. bytes (ABS,CON)

      Value  Global                              Global Defined In Module
      -----  --------------------------------   ------------------------
     00000005  b_topdown_update                   topdown
     00000005  l__CRASH_HEADER0                
     00000005  l__HEADER1                      
     00000006  ___bank_bg_room13_tilemap          bg_room13_tilemap
     00000006  ___bank_bg_room13_tilemap_attr     bg_room13_tilemap_attr
     00000006  ___bank_scene_room_13_collisions   scene_room_13_collisions
     00000006  ___bank_script_input_0             script_input_0
     00000006  ___bank_script_input_2             script_input_2
     00000006  ___bank_script_input_7             script_input_7
     00000006  ___bank_sprite_debug_flowey_face   sprite_debug_flowey_face
     00000006  l__HEADER8                      
     00000007  ___bank_bg_intro05_tileset         bg_intro05_tileset
     00000007  ___bank_bg_room03_tilemap_attr     bg_room03_tilemap_attr
     00000007  ___bank_font_determination_color   font_determination_color
     00000007  ___bank_font_determination_color   font_determination_color_va
     00000007  ___bank_font_inverted_varwid       font_inverted_varwid
     00000007  ___bank_font_miniinvert            font_miniinvert
     00000007  l__HEADER2                      
     00000008  ___bank_bg_room07_tilemap          bg_room07_tilemap
     00000008  ___bank_bg_room07_tilemap_attr     bg_room07_tilemap_attr
     00000008  ___bank_bg_room13_tileset          bg_room13_tileset
     00000008  ___bank_font_determination         font_determination
     00000008  ___bank_scene_room_07_collisions   scene_room_07_collisions
     00000008  ___bank_script_7                   script_7
     00000008  ___bank_song_your_best_friend_Da   song_your_best_friend_Data
     00000008  ___mute_mask_sound_voices_sav_08   sound_voices_sav
     00000008  ___mute_mask_sound_voices_sav_10   sound_voices_sav
     00000008  ___mute_mask_sound_voices_sav_11   sound_voices_sav
     00000008  l__HEADER3                      
     00000009  ___bank_bg_intro04_tileset         bg_intro04_tileset
     00000009  ___bank_bg_intro07_tileset         bg_intro07_tileset
     00000009  ___bank_bg_room25_tilemap          bg_room25_tilemap
     00000009  ___bank_bg_room25_tilemap_attr     bg_room25_tilemap_attr
     00000009  ___bank_scene_0_sprites            scene_0_sprites
     00000009  ___bank_scene_room_25_collisions   scene_room_25_collisions
     00000009  b_do_load_palette                  data_manager
     00000009  b_load_background                  data_manager
     00000009  b_load_bkg_tileset                 data_manager
     00000009  b_load_bounds                      data_manager
     00000009  b_load_emote                       data_manager
     00000009  b_load_init                        data_manager
     00000009  b_load_player                      data_manager
     00000009  b_load_scene                       data_manager
     00000009  b_load_sprite                      data_manager
     00000009  b_shmup_init                       shmup
     00000009  b_shmup_update                     shmup
     0000000A  ___bank_VM_UI                      vm_ui
     0000000A  ___bank_bg_room11_tilemap          bg_room11_tilemap
     0000000A  ___bank_bg_room11_tilemap_attr     bg_room11_tilemap_attr
     0000000A  ___bank_bg_room18_tilemap          bg_room18_tilemap
     0000000A  ___bank_bg_room18_tilemap_attr     bg_room18_tilemap_attr
ASxxxx Linker V03.00/V05.40 + sdld,  page 6.
Hexadecimal  [32-Bits]

Area                                    Addr        Size        Decimal Bytes (Attributes)
--------------------------------        ----        ----        ------- ----- ------------
.  .ABS.                            00000000    00000000 =           0. bytes (ABS,CON)

      Value  Global                              Global Defined In Module
      -----  --------------------------------   ------------------------
     0000000A  ___bank_scene_room_06_sprites      scene_room_06_sprites
     0000000A  ___bank_scene_room_11_collisions   scene_room_11_collisions
     0000000A  ___bank_scene_room_18_collisions   scene_room_18_collisions
     0000000A  ___mute_mask_sound_voices_sav_02   sound_voices_sav
     0000000A  ___mute_mask_sound_voices_sav_04   sound_voices_sav
     0000000A  ___mute_mask_sound_voices_sav_05   sound_voices_sav
     0000000A  ___mute_mask_sound_voices_sav_06   sound_voices_sav
     0000000A  ___mute_mask_sound_voices_sav_09   sound_voices_sav
     0000000A  b_gbprinter_detect                 gbprinter
     0000000A  b_gbprinter_print_overlay          gbprinter
     0000000A  b_scroll_init                      scroll
     0000000A  b_scroll_repaint                   scroll
     0000000A  b_scroll_reset                     scroll
     0000000A  b_scroll_update                    scroll
     0000000A  b_vm_choice                        vm_ui
     0000000A  b_vm_display_text                  vm_ui
     0000000A  b_vm_overlay_clear                 vm_ui
     0000000A  b_vm_overlay_move_to               vm_ui
     0000000A  b_vm_overlay_scroll                vm_ui
     0000000A  b_vm_overlay_set_map               vm_ui
     0000000A  b_vm_overlay_set_scroll            vm_ui
     0000000A  b_vm_overlay_set_submap            vm_ui
     0000000A  b_vm_overlay_set_submap_ex         vm_ui
     0000000A  b_vm_overlay_setpos                vm_ui
     0000000A  b_vm_overlay_show                  vm_ui
     0000000A  b_vm_overlay_wait                  vm_ui
     0000000A  b_vm_set_font                      vm_ui
     0000000A  b_vm_set_text_sound                vm_ui
     0000000A  b_vm_switch_text_layer             vm_ui
     0000000B  ___bank_bg_room01_tileset          bg_room01_tileset
     0000000B  ___bank_bg_room05_tilemap          bg_room05_tilemap
     0000000B  ___bank_bg_room05_tilemap_attr     bg_room05_tilemap_attr
     0000000B  ___bank_bg_room17_tileset          bg_room17_tileset
     0000000B  ___bank_bg_room21_tilemap          bg_room21_tilemap
     0000000B  ___bank_bg_room21_tilemap_attr     bg_room21_tilemap_attr
     0000000B  ___bank_bg_room22_tilemap          bg_room22_tilemap
     0000000B  ___bank_bg_room23_tilemap          bg_room23_tilemap
     0000000B  ___bank_bg_room24_tilemap          bg_room24_tilemap
     0000000B  ___bank_scene_room_04_sprites      scene_room_04_sprites
     0000000B  ___bank_scene_room_05_collisions   scene_room_05_collisions
     0000000C  ___bank_VM_GAMEBOY                 vm_gameboy
     0000000C  ___bank_bg_battle1_test_tileset    bg_battle1_test_tileset
     0000000C  ___bank_bg_intro02_tileset         bg_intro02_tileset
     0000000C  ___bank_bg_room07_tileset          bg_room07_tileset
     0000000C  ___bank_bg_room19_tileset          bg_room19_tileset
     0000000C  ___bank_scene_battle_test_1_spri   scene_battle_test_1_sprites
     0000000C  ___bank_scene_room_21_collisions   scene_room_21_collisions
     0000000C  ___bank_scene_room_22_collisions   scene_room_22_collisions
     0000000C  ___bank_scene_room_23_collisions   scene_room_23_collisions
     0000000C  ___bank_scene_room_24_collisions   scene_room_24_collisions
     0000000C  b_adventure_init                   adventure
ASxxxx Linker V03.00/V05.40 + sdld,  page 7.
Hexadecimal  [32-Bits]

Area                                    Addr        Size        Decimal Bytes (Attributes)
--------------------------------        ----        ----        ------- ----- ------------
.  .ABS.                            00000000    00000000 =           0. bytes (ABS,CON)

      Value  Global                              Global Defined In Module
      -----  --------------------------------   ------------------------
     0000000C  b_adventure_update                 adventure
     0000000C  b_vm_context_prepare               vm_gameboy
     0000000C  b_vm_fade                          vm_gameboy
     0000000C  b_vm_get_tile_xy                   vm_gameboy
     0000000C  b_vm_input_attach                  vm_gameboy
     0000000C  b_vm_input_detach                  vm_gameboy
     0000000C  b_vm_input_get                     vm_gameboy
     0000000C  b_vm_input_wait                    vm_gameboy
     0000000C  b_vm_load_tiles                    vm_gameboy
     0000000C  b_vm_load_tileset                  vm_gameboy
     0000000C  b_vm_poll                          vm_gameboy
     0000000C  b_vm_replace_tile                  vm_gameboy
     0000000C  b_vm_replace_tile_xy               vm_gameboy
     0000000C  b_vm_rumble                        vm_gameboy
     0000000C  b_vm_set_sprite_mode               vm_gameboy
     0000000C  b_vm_set_sprites_visible           vm_gameboy
     0000000C  b_vm_timer_prepare                 vm_gameboy
     0000000C  b_vm_timer_reset                   vm_gameboy
     0000000C  b_vm_timer_set                     vm_gameboy
     0000000C  b_vm_timer_stop                    vm_gameboy
     0000000D  ___bank_actor_36_update            actor_36_update
     0000000D  ___bank_actor_43_update            actor_43_update
     0000000D  ___bank_actor_5_update             actor_5_update
     0000000D  ___bank_bg_room01_tilemap          bg_room01_tilemap
     0000000D  ___bank_bg_room01_tilemap_attr     bg_room01_tilemap_attr
     0000000D  ___bank_bg_room03_tilemap          bg_room03_tilemap
     0000000D  ___bank_bg_room10_tilemap          bg_room10_tilemap
     0000000D  ___bank_bg_room10_tilemap_attr     bg_room10_tilemap_attr
     0000000D  ___bank_scene_room_01_collisions   scene_room_01_collisions
     0000000D  ___bank_scene_room_03_collisions   scene_room_03_collisions
     0000000D  ___bank_scene_room_07_sprites      scene_room_07_sprites
     0000000D  ___bank_scene_room_10_collisions   scene_room_10_collisions
     0000000D  ___bank_sprite_star                sprite_star
     0000000E  ___bank_VM_CAMERA                  vm_camera
     0000000E  ___bank_bg_intro01_tileset         bg_intro01_tileset
     0000000E  ___bank_bg_room02_tileset          bg_room02_tileset
     0000000E  ___bank_bg_room03_tileset          bg_room03_tileset
     0000000E  ___bank_bg_room12_tilemap          bg_room12_tilemap
     0000000E  ___bank_bg_room12_tilemap_attr     bg_room12_tilemap_attr
     0000000E  ___bank_bg_room14_tilemap          bg_room14_tilemap
     0000000E  ___bank_bg_room14_tilemap_attr     bg_room14_tilemap_attr
     0000000E  ___bank_bg_room25_tileset          bg_room25_tileset
     0000000E  ___bank_cursor_image               cursor_image
     0000000E  ___bank_scene_room_12_collisions   scene_room_12_collisions
     0000000E  ___bank_scene_room_14_collisions   scene_room_14_collisions
     0000000E  ___bank_sound_voices_sav_00        sound_voices_sav
     0000000E  ___bank_sound_voices_sav_01        sound_voices_sav
     0000000E  ___bank_sound_voices_sav_02        sound_voices_sav
     0000000E  ___bank_sound_voices_sav_03        sound_voices_sav
     0000000E  ___bank_sound_voices_sav_04        sound_voices_sav
     0000000E  ___bank_sound_voices_sav_05        sound_voices_sav
ASxxxx Linker V03.00/V05.40 + sdld,  page 8.
Hexadecimal  [32-Bits]

Area                                    Addr        Size        Decimal Bytes (Attributes)
--------------------------------        ----        ----        ------- ----- ------------
.  .ABS.                            00000000    00000000 =           0. bytes (ABS,CON)

      Value  Global                              Global Defined In Module
      -----  --------------------------------   ------------------------
     0000000E  ___bank_sound_voices_sav_06        sound_voices_sav
     0000000E  ___bank_sound_voices_sav_07        sound_voices_sav
     0000000E  ___bank_sound_voices_sav_08        sound_voices_sav
     0000000E  ___bank_sound_voices_sav_09        sound_voices_sav
     0000000E  ___bank_sound_voices_sav_10        sound_voices_sav
     0000000E  ___bank_sound_voices_sav_11        sound_voices_sav
     0000000E  ___bank_sprite_frisk_new_tileset   sprite_frisk_new_tileset
     0000000E  b_camera_shake_frames              vm_camera
     0000000E  b_projectile_launch                projectiles
     0000000E  b_projectiles_init                 projectiles
     0000000E  b_vm_camera_move_to                vm_camera
     0000000E  b_vm_camera_set_pos                vm_camera
     0000000F  ___bank_bg_battle2_test_tileset    bg_battle2_test_tileset
     0000000F  ___bank_bg_intro06_tileset         bg_intro06_tileset
     0000000F  ___bank_bg_room02_tilemap          bg_room02_tilemap
     0000000F  ___bank_bg_room02_tilemap_attr     bg_room02_tilemap_attr
     0000000F  ___bank_bg_room04_tileset          bg_room04_tileset
     0000000F  ___bank_bg_room05_tileset          bg_room05_tileset
     0000000F  ___bank_bg_room08_tileset          bg_room08_tileset
     0000000F  ___bank_bg_room10_tileset          bg_room10_tileset
     0000000F  ___bank_bg_room21_tileset          bg_room21_tileset
     0000000F  ___bank_bg_room23_tileset          bg_room23_tileset
     0000000F  ___bank_bg_room24_tileset          bg_room24_tileset
     0000000F  ___bank_scene_room_02_collisions   scene_room_02_collisions
     0000000F  ___bank_scene_room_09_sprites      scene_room_09_sprites
     0000000F  b___HandleCrash_banked             
     0000000F  b_core_reset                       core
     0000000F  b_core_run                         core
     0000000F  b_data_clear                       load_save
     0000000F  b_data_init                        load_save
     0000000F  b_data_load                        load_save
     0000000F  b_data_peek                        load_save
     0000000F  b_data_save                        load_save
     0000000F  b_pointnclick_init                 pointnclick
     0000000F  b_pointnclick_update               pointnclick
     0000000F  b_trigger_activate_at              trigger
     0000000F  b_trigger_activate_at_intersecti   trigger
     0000000F  b_trigger_at_intersection          trigger
     0000000F  b_trigger_at_tile                  trigger
     0000000F  b_trigger_interact                 trigger
     0000000F  b_trigger_reset                    trigger
     00000010  ___bank_bg_room04_tilemap          bg_room04_tilemap
     00000010  ___bank_bg_room04_tilemap_attr     bg_room04_tilemap_attr
     00000010  ___bank_bg_room06_tilemap          bg_room06_tilemap
     00000010  ___bank_bg_room06_tilemap_attr     bg_room06_tilemap_attr
     00000010  ___bank_bg_room09_tilemap          bg_room09_tilemap
     00000010  ___bank_bg_room09_tilemap_attr     bg_room09_tilemap_attr
     00000010  ___bank_bg_room12_tileset          bg_room12_tileset
     00000010  ___bank_bg_room15_tilemap          bg_room15_tilemap
     00000010  ___bank_bg_room15_tilemap_attr     bg_room15_tilemap_attr
     00000010  ___bank_bg_room16_tilemap          bg_room16_tilemap
ASxxxx Linker V03.00/V05.40 + sdld,  page 9.
Hexadecimal  [32-Bits]

Area                                    Addr        Size        Decimal Bytes (Attributes)
--------------------------------        ----        ----        ------- ----- ------------
.  .ABS.                            00000000    00000000 =           0. bytes (ABS,CON)

      Value  Global                              Global Defined In Module
      -----  --------------------------------   ------------------------
     00000010  ___bank_bg_room16_tilemap_attr     bg_room16_tilemap_attr
     00000010  ___bank_bg_room17_tilemap          bg_room17_tilemap
     00000010  ___bank_bg_room20_tilemap          bg_room20_tilemap
     00000010  ___bank_bg_room20_tilemap_attr     bg_room20_tilemap_attr
     00000010  ___bank_bg_room22_tileset          bg_room22_tileset
     00000010  ___bank_scene_intro_03_init        scene_intro_03_init
     00000010  ___bank_scene_room_04_collisions   scene_room_04_collisions
     00000010  ___bank_scene_room_06_collisions   scene_room_06_collisions
     00000010  ___bank_scene_room_09_collisions   scene_room_09_collisions
     00000010  ___bank_scene_room_15_collisions   scene_room_15_collisions
     00000010  ___bank_scene_room_16_collisions   scene_room_16_collisions
     00000010  b_atan2                            math_atan2
     00000011  ___bank_VM_SIO                     vm_sio
     00000011  ___bank_actor_11_interact          actor_11_interact
     00000011  ___bank_actor_1_interact           actor_1_interact
     00000011  ___bank_bg_battle1_test_tilemap    bg_battle1_test_tilemap
     00000011  ___bank_bg_battle1_test_tilemap_   bg_battle1_test_tilemap_attr
     00000011  ___bank_bg_debug_flowey_battle_t   bg_debug_flowey_battle_tiles
     00000011  ___bank_bg_loadmenu_tileset        bg_loadmenu_tileset
     00000011  ___bank_bg_logo_tileset            bg_logo_tileset
     00000011  ___bank_bg_room06_tileset          bg_room06_tileset
     00000011  ___bank_bg_room09_tileset          bg_room09_tileset
     00000011  ___bank_bg_room11_tileset          bg_room11_tileset
     00000011  ___bank_bg_room14_tileset          bg_room14_tileset
     00000011  ___bank_bg_room15_tileset          bg_room15_tileset
     00000011  ___bank_bg_room16_tileset          bg_room16_tileset
     00000011  ___bank_bg_room20_tileset          bg_room20_tileset
     00000011  ___bank_scene_0_p_hit1             scene_0_p_hit1
     00000011  ___bank_scene_room_04_init         scene_room_04_init
     00000011  ___bank_scene_room_05_actors       scene_room_05_actors
     00000011  ___bank_scene_room_07_init         scene_room_07_init
     00000011  ___bank_scene_room_14_actors       scene_room_14_actors
     00000011  ___bank_scene_room_17_collisions   scene_room_17_collisions
     00000011  ___bank_scene_room_20_collisions   scene_room_20_collisions
     00000011  ___bank_sprite_frisk_new_compres   sprite_frisk_new_compressed_
     00000011  ___bank_sprite_toriel_tileset      sprite_toriel_tileset
     00000011  ___bank_trigger_37_interact        trigger_37_interact
     00000011  b_copy_screen_area_to_overlay      PauseMenuPlugin
     00000011  b_fade_applypalettechange          fade_manager
     00000011  b_fade_in                          fade_manager
     00000011  b_fade_in_modal                    fade_manager
     00000011  b_fade_init                        fade_manager
     00000011  b_fade_out                         fade_manager
     00000011  b_fade_out_modal                   fade_manager
     00000011  b_fade_setspeed                    fade_manager
     00000011  b_fade_update                      fade_manager
     00000011  b_pauseMenuMainShow                PauseMenuPlugin
     00000011  b_set_sgb_border                   sgb_border
     00000011  b_ugb_show_pause_menu              PauseMenuPlugin
     00000011  b_utgb_cat_var_to_string           PauseMenuPlugin
     00000011  b_vm_sio_exchange                  vm_sio
ASxxxx Linker V03.00/V05.40 + sdld,  page 10.
Hexadecimal  [32-Bits]

Area                                    Addr        Size        Decimal Bytes (Attributes)
--------------------------------        ----        ----        ------- ----- ------------
.  .ABS.                            00000000    00000000 =           0. bytes (ABS,CON)

      Value  Global                              Global Defined In Module
      -----  --------------------------------   ------------------------
     00000011  b_vm_sio_set_mode                  vm_sio
     00000012  ___bank_VM_MUSIC                   vm_music
     00000012  ___bank_VM_PALETTE                 vm_palette
     00000012  ___bank_actor_20_update            actor_20_update
     00000012  ___bank_actor_30_update            actor_30_update
     00000012  ___bank_actor_31_update            actor_31_update
     00000012  ___bank_bg_battle2_test_tilemap    bg_battle2_test_tilemap
     00000012  ___bank_bg_battle2_test_tilemap_   bg_battle2_test_tilemap_attr
     00000012  ___bank_bg_debug_flowey_battle_t   bg_debug_flowey_battle_tilem
     00000012  ___bank_bg_gameover_tilemap        bg_gameover_tilemap
     00000012  ___bank_bg_intro01_tilemap         bg_intro01_tilemap
     00000012  ___bank_bg_intro01_tilemap_attr    bg_intro01_tilemap_attr
     00000012  ___bank_bg_intro02_tilemap         bg_intro02_tilemap
     00000012  ___bank_bg_intro03_tilemap         bg_intro03_tilemap
     00000012  ___bank_bg_intro05_tilemap         bg_intro05_tilemap
     00000012  ___bank_bg_intro06_tilemap         bg_intro06_tilemap
     00000012  ___bank_bg_intro07_tilemap         bg_intro07_tilemap
     00000012  ___bank_bg_introtemplate_tilemap   bg_introtemplate_tilemap
     00000012  ___bank_bg_loadmenu_tilemap        bg_loadmenu_tilemap
     00000012  ___bank_bg_logo_tilemap            bg_logo_tilemap
     00000012  ___bank_bg_misc_tilemap            bg_misc_tilemap
     00000012  ___bank_bg_misc_tilemap_attr       bg_misc_tilemap_attr
     00000012  ___bank_bg_room18_tileset          bg_room18_tileset
     00000012  ___bank_bg_water_tilemap           bg_water_tilemap
     00000012  ___bank_scene_0_collisions         scene_0_collisions
     00000012  ___bank_scene_40_collisions        scene_40_collisions
     00000012  ___bank_scene_41_collisions        scene_41_collisions
     00000012  ___bank_scene_battle_test_1_coll   scene_battle_test_1_collisio
     00000012  ___bank_scene_battle_test_2_coll   scene_battle_test_2_collisio
     00000012  ___bank_scene_debug_collisions     scene_debug_collisions
     00000012  ___bank_scene_gameover_collision   scene_gameover_collisions
     00000012  ___bank_scene_intro_01_collision   scene_intro_01_collisions
     00000012  ___bank_scene_intro_02_collision   scene_intro_02_collisions
     00000012  ___bank_scene_intro_03_collision   scene_intro_03_collisions
     00000012  ___bank_scene_intro_04_collision   scene_intro_04_collisions
     00000012  ___bank_scene_intro_05_collision   scene_intro_05_collisions
     00000012  ___bank_scene_intro_06_collision   scene_intro_06_collisions
     00000012  ___bank_scene_intro_07_collision   scene_intro_07_collisions
     00000012  ___bank_scene_logo_collisions      scene_logo_collisions
     00000012  ___bank_scene_menu_1_collisions    scene_menu_1_collisions
     00000012  ___bank_scene_room_12_actors       scene_room_12_actors
     00000012  ___bank_script_10                  script_10
     00000012  ___bank_sprite_battleui_tileset    sprite_battleui_tileset
     00000012  ___bank_sprite_floweybullet        sprite_floweybullet
     00000012  ___bank_sprite_frisk_new           sprite_frisk_new
     00000012  ___bank_sprite_frisk_new_compres   sprite_frisk_new_compressed
     00000012  b_vm_load_palette                  vm_palette
     00000012  b_vm_music_mute                    vm_music
     00000012  b_vm_music_play                    vm_music
     00000012  b_vm_music_routine                 vm_music
     00000012  b_vm_music_setpos                  vm_music
ASxxxx Linker V03.00/V05.40 + sdld,  page 11.
Hexadecimal  [32-Bits]

Area                                    Addr        Size        Decimal Bytes (Attributes)
--------------------------------        ----        ----        ------- ----- ------------
.  .ABS.                            00000000    00000000 =           0. bytes (ABS,CON)

      Value  Global                              Global Defined In Module
      -----  --------------------------------   ------------------------
     00000012  b_vm_music_stop                    vm_music
     00000012  b_vm_sfx_play                      vm_music
     00000012  b_vm_sound_mastervol               vm_music
     00000013  ___bank_VM_GBPRINTER               vm_gbprinter
     00000013  ___bank_VM_LOAD_SAVE               vm_load_save
     00000013  ___bank_VM_MATH                    vm_math
     00000013  ___bank_VM_PROJECTILE              vm_projectiles
     00000013  ___bank_VM_SCENE                   vm_scene
     00000013  ___bank_actor_10_interact          actor_10_interact
     00000013  ___bank_actor_16_interact          actor_16_interact
     00000013  ___bank_actor_17_interact          actor_17_interact
     00000013  ___bank_actor_19_interact          actor_19_interact
     00000013  ___bank_actor_22_update            actor_22_update
     00000013  ___bank_actor_25_interact          actor_25_interact
     00000013  ___bank_actor_26_interact          actor_26_interact
     00000013  ___bank_actor_27_interact          actor_27_interact
     00000013  ___bank_actor_28_interact          actor_28_interact
     00000013  ___bank_actor_2_update             actor_2_update
     00000013  ___bank_actor_32_interact          actor_32_interact
     00000013  ___bank_actor_33_update            actor_33_update
     00000013  ___bank_actor_34_update            actor_34_update
     00000013  ___bank_actor_35_update            actor_35_update
     00000013  ___bank_actor_9_interact           actor_9_interact
     00000013  ___bank_actor_pattern_handler_up   actor_pattern_handler_update
     00000013  ___bank_avatar_font_0              avatar_font_0
     00000013  ___bank_bg_gameover_tileset        bg_gameover_tileset
     00000013  ___bank_bg_misc_tileset            bg_misc_tileset
     00000013  ___bank_bg_water_tileset           bg_water_tileset
     00000013  ___bank_frame_image                frame_image
     00000013  ___bank_palette_0                  palette_0
     00000013  ___bank_palette_1                  palette_1
     00000013  ___bank_palette_10                 palette_10
     00000013  ___bank_palette_11                 palette_11
     00000013  ___bank_palette_12                 palette_12
     00000013  ___bank_palette_13                 palette_13
     00000013  ___bank_palette_14                 palette_14
     00000013  ___bank_palette_15                 palette_15
     00000013  ___bank_palette_16                 palette_16
     00000013  ___bank_palette_17                 palette_17
     00000013  ___bank_palette_18                 palette_18
     00000013  ___bank_palette_19                 palette_19
     00000013  ___bank_scene_0_actors             scene_0_actors
     00000013  ___bank_scene_battle_test_1_acto   scene_battle_test_1_actors
     00000013  ___bank_scene_battle_test_1_init   scene_battle_test_1_init
     00000013  ___bank_scene_battle_test_2_acto   scene_battle_test_2_actors
     00000013  ___bank_scene_battle_test_2_init   scene_battle_test_2_init
     00000013  ___bank_scene_battle_test_2_p_hi   scene_battle_test_2_p_hit1
     00000013  ___bank_scene_debug_init           scene_debug_init
     00000013  ___bank_scene_intro_01_init        scene_intro_01_init
     00000013  ___bank_scene_intro_02_init        scene_intro_02_init
     00000013  ___bank_scene_intro_04_init        scene_intro_04_init
ASxxxx Linker V03.00/V05.40 + sdld,  page 12.
Hexadecimal  [32-Bits]

Area                                    Addr        Size        Decimal Bytes (Attributes)
--------------------------------        ----        ----        ------- ----- ------------
.  .ABS.                            00000000    00000000 =           0. bytes (ABS,CON)

      Value  Global                              Global Defined In Module
      -----  --------------------------------   ------------------------
     00000013  ___bank_scene_intro_05_init        scene_intro_05_init
     00000013  ___bank_scene_intro_06_init        scene_intro_06_init
     00000013  ___bank_scene_intro_07_init        scene_intro_07_init
     00000013  ___bank_scene_logo_init            scene_logo_init
     00000013  ___bank_scene_menu_1_init          scene_menu_1_init
     00000013  ___bank_scene_room_04_actors       scene_room_04_actors
     00000013  ___bank_scene_room_05_init         scene_room_05_init
     00000013  ___bank_scene_room_07_actors       scene_room_07_actors
     00000013  ___bank_scene_room_07_triggers     scene_room_07_triggers
     00000013  ___bank_scene_room_09_actors       scene_room_09_actors
     00000013  ___bank_scene_room_10_actors       scene_room_10_actors
     00000013  ___bank_scene_room_12_init         scene_room_12_init
     00000013  ___bank_scene_room_13_actors       scene_room_13_actors
     00000013  ___bank_scene_room_14_init         scene_room_14_init
     00000013  ___bank_script_12                  script_12
     00000013  ___bank_script_13                  script_13
     00000013  ___bank_script_add_menu_to_overw   script_add_menu_to_overworl
     00000013  ___bank_script_engine_init         
     00000013  ___bank_script_input_3             script_input_3
     00000013  ___bank_script_input_6             script_input_6
     00000013  ___bank_sprite_battleenemyparts    sprite_battleenemyparts
     00000013  ___bank_sprite_battleenemyparts_   sprite_battleenemyparts_tile
     00000013  ___bank_sprite_battleui            sprite_battleui
     00000013  ___bank_sprite_bigdoor_v3          sprite_bigdoor_v3
     00000013  ___bank_sprite_bigdoor_v3_tilese   sprite_bigdoor_v3_tileset
     00000013  ___bank_sprite_blooky_tileset      sprite_blooky_tileset
     00000013  ___bank_sprite_candy               sprite_candy
     00000013  ___bank_sprite_candy_tileset       sprite_candy_tileset
     00000013  ___bank_sprite_debug_flowey_face   sprite_debug_flowey_face_til
     00000013  ___bank_sprite_dummy_tileset       sprite_dummy_tileset
     00000013  ___bank_sprite_floweycircle        sprite_floweycircle
     00000013  ___bank_sprite_floweycircle_tile   sprite_floweycircle_tileset
     00000013  ___bank_sprite_froggit_overworld   sprite_froggit_overworld__ti
     00000013  ___bank_sprite_star_tileset        sprite_star_tileset
     00000013  ___bank_sprite_toriel              sprite_toriel
     00000013  ___bank_sprite_wallswitch          sprite_wallswitch
     00000013  ___bank_trigger_61_interact        trigger_61_interact
     00000013  ___bank_trigger_62_interact        trigger_62_interact
     00000013  ___bank_trigger_63_interact        trigger_63_interact
     00000013  ___bank_trigger_64_interact        trigger_64_interact
     00000013  ___bank_trigger_65_interact        trigger_65_interact
     00000013  ___bank_trigger_66_interact        trigger_66_interact
     00000013  ___bank_trigger_67_interact        trigger_67_interact
     00000013  ___bank_trigger_69_interact        trigger_69_interact
     00000013  ___bank_trigger_70_interact        trigger_70_interact
     00000013  ___bank_trigger_71_interact        trigger_71_interact
     00000013  ___bank_trigger_72_interact        trigger_72_interact
     00000013  ___bank_trigger_73_interact        trigger_73_interact
     00000013  ___bank_trigger_74_interact        trigger_74_interact
     00000013  ___bank_trigger_75_interact        trigger_75_interact
     00000013  ___bank_trigger_76_interact        trigger_76_interact
ASxxxx Linker V03.00/V05.40 + sdld,  page 13.
Hexadecimal  [32-Bits]

Area                                    Addr        Size        Decimal Bytes (Attributes)
--------------------------------        ----        ----        ------- ----- ------------
.  .ABS.                            00000000    00000000 =           0. bytes (ABS,CON)

      Value  Global                              Global Defined In Module
      -----  --------------------------------   ------------------------
     00000013  ___bank_trigger_77_interact        trigger_77_interact
     00000013  ___bank_trigger_78_interact        trigger_78_interact
     00000013  ___bank_trigger_80_interact        trigger_80_interact
     00000013  ___bank_trigger_81_interact        trigger_81_interact
     00000013  ___bank_trigger_82_interact        trigger_82_interact
     00000013  ___bank_trigger_83_interact        trigger_83_interact
     00000013  ___bank_trigger_84_interact        trigger_84_interact
     00000013  ___bank_trigger_85_interact        trigger_85_interact
     00000013  ___bank_trigger_86_interact        trigger_86_interact
     00000013  ___bank_trigger_87_interact        trigger_87_interact
     00000013  ___bank_trigger_88_interact        trigger_88_interact
     00000013  b_CGBZeroPalette                   palette
     00000013  b_erase_flash                      
     00000013  b_events_init                      events
     00000013  b_itoa_fmt                         vm_ui_a
     00000013  b_music_events_poll                music_manager
     00000013  b_music_init_driver                music_manager
     00000013  b_music_init_events                music_manager
     00000013  b_palette_init                     palette
     00000013  b_restore_sram                     flasher
     00000013  b_restore_sram_bank                flasher
     00000013  b_save_sram                        flasher
     00000013  b_save_sram_banks                  
     00000013  b_timers_init                      events
     00000013  b_vm_cos_scale                     vm_math
     00000013  b_vm_print_detect                  vm_gbprinter
     00000013  b_vm_print_overlay                 vm_gbprinter
     00000013  b_vm_projectile_launch             vm_projectiles
     00000013  b_vm_projectile_load_type          vm_projectiles
     00000013  b_vm_save_clear                    vm_load_save
     00000013  b_vm_save_peek                     vm_load_save
     00000013  b_vm_scene_pop                     vm_scene
     00000013  b_vm_scene_pop_all                 vm_scene
     00000013  b_vm_scene_push                    vm_scene
     00000013  b_vm_scene_stack_reset             vm_scene
     00000013  b_vm_sin_scale                     vm_math
     00000014  ___bank_actor_15_interact          actor_15_interact
     00000014  ___bank_actor_18_interact          actor_18_interact
     00000014  ___bank_actor_29_interact          actor_29_interact
     00000014  ___bank_actor_4_update             actor_4_update
     00000014  ___bank_bg_battle1_test            bg_battle1_test
     00000014  ___bank_bg_battle2_test            bg_battle2_test
     00000014  ___bank_bg_debug_flowey_battle     bg_debug_flowey_battle
     00000014  ___bank_bg_gameover                bg_gameover
     00000014  ___bank_bg_intro01                 bg_intro01
     00000014  ___bank_bg_intro02                 bg_intro02
     00000014  ___bank_bg_intro03                 bg_intro03
     00000014  ___bank_bg_intro04                 bg_intro04
     00000014  ___bank_bg_intro05                 bg_intro05
     00000014  ___bank_bg_intro06                 bg_intro06
     00000014  ___bank_bg_intro07                 bg_intro07
ASxxxx Linker V03.00/V05.40 + sdld,  page 14.
Hexadecimal  [32-Bits]

Area                                    Addr        Size        Decimal Bytes (Attributes)
--------------------------------        ----        ----        ------- ----- ------------
.  .ABS.                            00000000    00000000 =           0. bytes (ABS,CON)

      Value  Global                              Global Defined In Module
      -----  --------------------------------   ------------------------
     00000014  ___bank_bg_introtemplate           bg_introtemplate
     00000014  ___bank_bg_introtemplate_tileset   bg_introtemplate_tileset
     00000014  ___bank_bg_loadmenu                bg_loadmenu
     00000014  ___bank_bg_logo                    bg_logo
     00000014  ___bank_bg_misc                    bg_misc
     00000014  ___bank_bg_room01                  bg_room01
     00000014  ___bank_bg_room02                  bg_room02
     00000014  ___bank_bg_room03                  bg_room03
     00000014  ___bank_bg_room04                  bg_room04
     00000014  ___bank_bg_room05                  bg_room05
     00000014  ___bank_bg_room06                  bg_room06
     00000014  ___bank_bg_room07                  bg_room07
     00000014  ___bank_bg_room08                  bg_room08
     00000014  ___bank_bg_room09                  bg_room09
     00000014  ___bank_bg_room10                  bg_room10
     00000014  ___bank_bg_room11                  bg_room11
     00000014  ___bank_bg_room12                  bg_room12
     00000014  ___bank_bg_room13                  bg_room13
     00000014  ___bank_bg_room14                  bg_room14
     00000014  ___bank_bg_room15                  bg_room15
     00000014  ___bank_bg_room16                  bg_room16
     00000014  ___bank_bg_room17                  bg_room17
     00000014  ___bank_bg_room18                  bg_room18
     00000014  ___bank_bg_room19                  bg_room19
     00000014  ___bank_bg_room20                  bg_room20
     00000014  ___bank_bg_room21                  bg_room21
     00000014  ___bank_bg_room22                  bg_room22
     00000014  ___bank_bg_room23                  bg_room23
     00000014  ___bank_bg_room24                  bg_room24
     00000014  ___bank_bg_room25                  bg_room25
     00000014  ___bank_bg_water                   bg_water
     00000014  ___bank_bootstrap_script           
     00000014  ___bank_palette_2                  palette_2
     00000014  ___bank_palette_20                 palette_20
     00000014  ___bank_palette_21                 palette_21
     00000014  ___bank_palette_22                 palette_22
     00000014  ___bank_palette_23                 palette_23
     00000014  ___bank_palette_24                 palette_24
     00000014  ___bank_palette_25                 palette_25
     00000014  ___bank_palette_26                 palette_26
     00000014  ___bank_palette_27                 palette_27
     00000014  ___bank_palette_3                  palette_3
     00000014  ___bank_palette_4                  palette_4
     00000014  ___bank_palette_5                  palette_5
     00000014  ___bank_palette_6                  palette_6
     00000014  ___bank_palette_7                  palette_7
     00000014  ___bank_palette_8                  palette_8
     00000014  ___bank_palette_9                  palette_9
     00000014  ___bank_scene_0                    scene_0
     00000014  ___bank_scene_0_init               scene_0_init
     00000014  ___bank_scene_0_projectiles        scene_0_projectiles
ASxxxx Linker V03.00/V05.40 + sdld,  page 15.
Hexadecimal  [32-Bits]

Area                                    Addr        Size        Decimal Bytes (Attributes)
--------------------------------        ----        ----        ------- ----- ------------
.  .ABS.                            00000000    00000000 =           0. bytes (ABS,CON)

      Value  Global                              Global Defined In Module
      -----  --------------------------------   ------------------------
     00000014  ___bank_scene_40                   scene_40
     00000014  ___bank_scene_40_init              scene_40_init
     00000014  ___bank_scene_41                   scene_41
     00000014  ___bank_scene_41_init              scene_41_init
     00000014  ___bank_scene_battle_test_1        scene_battle_test_1
     00000014  ___bank_scene_battle_test_2        scene_battle_test_2
     00000014  ___bank_scene_battle_test_2_proj   scene_battle_test_2_projecti
     00000014  ___bank_scene_battle_test_2_spri   scene_battle_test_2_sprites
     00000014  ___bank_scene_debug                scene_debug
     00000014  ___bank_scene_gameover             scene_gameover
     00000014  ___bank_scene_intro_01             scene_intro_01
     00000014  ___bank_scene_intro_02             scene_intro_02
     00000014  ___bank_scene_intro_03             scene_intro_03
     00000014  ___bank_scene_intro_04             scene_intro_04
     00000014  ___bank_scene_intro_05             scene_intro_05
     00000014  ___bank_scene_intro_06             scene_intro_06
     00000014  ___bank_scene_intro_07             scene_intro_07
     00000014  ___bank_scene_logo                 scene_logo
     00000014  ___bank_scene_menu_1               scene_menu_1
     00000014  ___bank_scene_room_01              scene_room_01
     00000014  ___bank_scene_room_01_init         scene_room_01_init
     00000014  ___bank_scene_room_01_triggers     scene_room_01_triggers
     00000014  ___bank_scene_room_02              scene_room_02
     00000014  ___bank_scene_room_02_actors       scene_room_02_actors
     00000014  ___bank_scene_room_02_init         scene_room_02_init
     00000014  ___bank_scene_room_02_triggers     scene_room_02_triggers
     00000014  ___bank_scene_room_03              scene_room_03
     00000014  ___bank_scene_room_03_actors       scene_room_03_actors
     00000014  ___bank_scene_room_03_init         scene_room_03_init
     00000014  ___bank_scene_room_03_triggers     scene_room_03_triggers
     00000014  ___bank_scene_room_04              scene_room_04
     00000014  ___bank_scene_room_04_triggers     scene_room_04_triggers
     00000014  ___bank_scene_room_05              scene_room_05
     00000014  ___bank_scene_room_05_sprites      scene_room_05_sprites
     00000014  ___bank_scene_room_05_triggers     scene_room_05_triggers
     00000014  ___bank_scene_room_06              scene_room_06
     00000014  ___bank_scene_room_06_actors       scene_room_06_actors
     00000014  ___bank_scene_room_06_init         scene_room_06_init
     00000014  ___bank_scene_room_06_triggers     scene_room_06_triggers
     00000014  ___bank_scene_room_07              scene_room_07
     00000014  ___bank_scene_room_08              scene_room_08
     00000014  ___bank_scene_room_08_init         scene_room_08_init
     00000014  ___bank_scene_room_08_triggers     scene_room_08_triggers
     00000014  ___bank_scene_room_09              scene_room_09
     00000014  ___bank_scene_room_09_init         scene_room_09_init
     00000014  ___bank_scene_room_10              scene_room_10
     00000014  ___bank_scene_room_10_init         scene_room_10_init
     00000014  ___bank_scene_room_10_sprites      scene_room_10_sprites
     00000014  ___bank_scene_room_10_triggers     scene_room_10_triggers
     00000014  ___bank_scene_room_11              scene_room_11
     00000014  ___bank_scene_room_11_init         scene_room_11_init
ASxxxx Linker V03.00/V05.40 + sdld,  page 16.
Hexadecimal  [32-Bits]

Area                                    Addr        Size        Decimal Bytes (Attributes)
--------------------------------        ----        ----        ------- ----- ------------
.  .ABS.                            00000000    00000000 =           0. bytes (ABS,CON)

      Value  Global                              Global Defined In Module
      -----  --------------------------------   ------------------------
     00000014  ___bank_scene_room_11_triggers     scene_room_11_triggers
     00000014  ___bank_scene_room_12              scene_room_12
     00000014  ___bank_scene_room_12_sprites      scene_room_12_sprites
     00000014  ___bank_scene_room_12_triggers     scene_room_12_triggers
     00000014  ___bank_scene_room_13              scene_room_13
     00000014  ___bank_scene_room_13_init         scene_room_13_init
     00000014  ___bank_scene_room_13_sprites      scene_room_13_sprites
     00000014  ___bank_scene_room_13_triggers     scene_room_13_triggers
     00000014  ___bank_scene_room_14              scene_room_14
     00000014  ___bank_scene_room_14_sprites      scene_room_14_sprites
     00000014  ___bank_scene_room_14_triggers     scene_room_14_triggers
     00000014  ___bank_scene_room_15              scene_room_15
     00000014  ___bank_scene_room_15_init         scene_room_15_init
     00000014  ___bank_scene_room_15_triggers     scene_room_15_triggers
     00000014  ___bank_scene_room_16              scene_room_16
     00000014  ___bank_scene_room_16_actors       scene_room_16_actors
     00000014  ___bank_scene_room_16_init         scene_room_16_init
     00000014  ___bank_scene_room_16_sprites      scene_room_16_sprites
     00000014  ___bank_scene_room_16_triggers     scene_room_16_triggers
     00000014  ___bank_scene_room_17              scene_room_17
     00000014  ___bank_scene_room_17_init         scene_room_17_init
     00000014  ___bank_scene_room_17_triggers     scene_room_17_triggers
     00000014  ___bank_scene_room_18              scene_room_18
     00000014  ___bank_scene_room_18_init         scene_room_18_init
     00000014  ___bank_scene_room_18_triggers     scene_room_18_triggers
     00000014  ___bank_scene_room_19              scene_room_19
     00000014  ___bank_scene_room_19_init         scene_room_19_init
     00000014  ___bank_scene_room_19_triggers     scene_room_19_triggers
     00000014  ___bank_scene_room_20              scene_room_20
     00000014  ___bank_scene_room_20_init         scene_room_20_init
     00000014  ___bank_scene_room_21              scene_room_21
     00000014  ___bank_scene_room_21_init         scene_room_21_init
     00000014  ___bank_scene_room_22              scene_room_22
     00000014  ___bank_scene_room_22_init         scene_room_22_init
     00000014  ___bank_scene_room_23              scene_room_23
     00000014  ___bank_scene_room_23_init         scene_room_23_init
     00000014  ___bank_scene_room_24              scene_room_24
     00000014  ___bank_scene_room_24_init         scene_room_24_init
     00000014  ___bank_scene_room_25              scene_room_25
     00000014  ___bank_scene_room_25_init         scene_room_25_init
     00000014  ___bank_script_8                   script_8
     00000014  ___bank_script_enter_battle        script_enter_battle
     00000014  ___bank_script_input_4             script_input_4
     00000014  ___bank_script_input_5             script_input_5
     00000014  ___bank_sprite_battlecursor        sprite_battlecursor
     00000014  ___bank_sprite_battlecursor_tile   sprite_battlecursor_tileset
     00000014  ___bank_sprite_blooky              sprite_blooky
     00000014  ___bank_sprite_dummy               sprite_dummy
     00000014  ___bank_sprite_empty               sprite_empty
     00000014  ___bank_sprite_empty_tileset       sprite_empty_tileset
     00000014  ___bank_sprite_flowey              sprite_flowey
ASxxxx Linker V03.00/V05.40 + sdld,  page 17.
Hexadecimal  [32-Bits]

Area                                    Addr        Size        Decimal Bytes (Attributes)
--------------------------------        ----        ----        ------- ----- ------------
.  .ABS.                            00000000    00000000 =           0. bytes (ABS,CON)

      Value  Global                              Global Defined In Module
      -----  --------------------------------   ------------------------
     00000014  ___bank_sprite_flowey_tileset      sprite_flowey_tileset
     00000014  ___bank_sprite_floweybullet_tile   sprite_floweybullet_tileset
     00000014  ___bank_sprite_froggit_overworld   sprite_froggit_overworld_
     00000014  ___bank_sprite_heart               sprite_heart
     00000014  ___bank_sprite_heart_tileset       sprite_heart_tileset
     00000014  ___bank_sprite_rock                sprite_rock
     00000014  ___bank_sprite_rock_tileset        sprite_rock_tileset
     00000014  ___bank_sprite_sign                sprite_sign
     00000014  ___bank_sprite_sign_tileset        sprite_sign_tileset
     00000014  ___bank_sprite_spikes              sprite_spikes
     00000014  ___bank_sprite_spikes_tileset      sprite_spikes_tileset
     00000014  ___bank_sprite_wallswitch_tilese   sprite_wallswitch_tileset
     00000014  ___bank_spritesheet_none           spritesheet_none
     00000014  ___bank_trigger_0_interact         trigger_0_interact
     00000014  ___bank_trigger_10_interact        trigger_10_interact
     00000014  ___bank_trigger_11_interact        trigger_11_interact
     00000014  ___bank_trigger_12_interact        trigger_12_interact
     00000014  ___bank_trigger_13_interact        trigger_13_interact
     00000014  ___bank_trigger_14_interact        trigger_14_interact
     00000014  ___bank_trigger_15_interact        trigger_15_interact
     00000014  ___bank_trigger_16_interact        trigger_16_interact
     00000014  ___bank_trigger_17_interact        trigger_17_interact
     00000014  ___bank_trigger_18_interact        trigger_18_interact
     00000014  ___bank_trigger_19_interact        trigger_19_interact
     00000014  ___bank_trigger_1_interact         trigger_1_interact
     00000014  ___bank_trigger_20_interact        trigger_20_interact
     00000014  ___bank_trigger_21_interact        trigger_21_interact
     00000014  ___bank_trigger_22_interact        trigger_22_interact
     00000014  ___bank_trigger_23_interact        trigger_23_interact
     00000014  ___bank_trigger_24_interact        trigger_24_interact
     00000014  ___bank_trigger_25_interact        trigger_25_interact
     00000014  ___bank_trigger_26_interact        trigger_26_interact
     00000014  ___bank_trigger_27_interact        trigger_27_interact
     00000014  ___bank_trigger_28_interact        trigger_28_interact
     00000014  ___bank_trigger_29_interact        trigger_29_interact
     00000014  ___bank_trigger_2_interact         trigger_2_interact
     00000014  ___bank_trigger_30_interact        trigger_30_interact
     00000014  ___bank_trigger_31_interact        trigger_31_interact
     00000014  ___bank_trigger_32_interact        trigger_32_interact
     00000014  ___bank_trigger_33_interact        trigger_33_interact
     00000014  ___bank_trigger_34_interact        trigger_34_interact
     00000014  ___bank_trigger_35_interact        trigger_35_interact
     00000014  ___bank_trigger_36_interact        trigger_36_interact
     00000014  ___bank_trigger_39_interact        trigger_39_interact
     00000014  ___bank_trigger_3_interact         trigger_3_interact
     00000014  ___bank_trigger_40_interact        trigger_40_interact
     00000014  ___bank_trigger_41_interact        trigger_41_interact
     00000014  ___bank_trigger_42_interact        trigger_42_interact
     00000014  ___bank_trigger_43_interact        trigger_43_interact
     00000014  ___bank_trigger_4_interact         trigger_4_interact
     00000014  ___bank_trigger_5_interact         trigger_5_interact
ASxxxx Linker V03.00/V05.40 + sdld,  page 18.
Hexadecimal  [32-Bits]

Area                                    Addr        Size        Decimal Bytes (Attributes)
--------------------------------        ----        ----        ------- ----- ------------
.  .ABS.                            00000000    00000000 =           0. bytes (ABS,CON)

      Value  Global                              Global Defined In Module
      -----  --------------------------------   ------------------------
     00000014  ___bank_trigger_68_interact        trigger_68_interact
     00000014  ___bank_trigger_6_interact         trigger_6_interact
     00000014  ___bank_trigger_79_interact        trigger_79_interact
     00000014  ___bank_trigger_7_interact         trigger_7_interact
     00000014  ___bank_trigger_8_interact         trigger_8_interact
     00000014  ___bank_trigger_9_interact         trigger_9_interact
     00000014  b_SIO_init                         sio
     00000014  b_camera_init                      camera
     00000014  b_camera_reset                     camera
     00000014  b_deab_overlay_tile_set            SetOverlayID
     00000014  b_input_init                       input
     00000014  b_logo_init                        logo
     00000014  b_logo_update                      logo
     00000014  b_parallax_init                    parallax
     00000014  b_remove_LCD_ISRs                  interrupts
     00000014  b_scroll_rect                      
     0000001A  l__INITIALIZED                  
     0000001A  l__INITIALIZER                  
     0000001C  __start_save                    
     00000027  l__GSINIT                       
     00000030  l__HEADER7                      
     00000060  l__HEADER4                      
     000000AB  l__HEADER11                     
     000001CB  l__CRASH_SCRATCH2               
     00000200  s__CODE                         
     00000EEA  l__CODE                         
     000010EA  s__HOME                         
     00001992  l__DATA                         
     00002000  _rROMB0                            
     000022B1  l__CODE_20                      
     00002B4C  l__HOME                         
     00003000  _rROMB1                            
     00003C36  s__BASE                         
     00003C36  s__CODE_0                       
     00003C36  s__INITIALIZER                  
     00003C36  s__LIT                          
     00003C50  s__GSINIT                       
     00003C77  s__GSFINAL                      
     00003FFE  l__CODE_16                      
     00003FFE  l__CODE_18                      
     00003FFF  l__CODE_10                      
     00003FFF  l__CODE_17                      
     00003FFF  l__CODE_19                      
     00003FFF  l__CODE_7                       
     00004000  _RTC_SELECT_REG                    vm_rtc
     00004000  _rRAMB                             
     00004000  l__CODE_1                       
     00004000  l__CODE_11                      
     00004000  l__CODE_12                      
     00004000  l__CODE_13                      
     00004000  l__CODE_14                      
ASxxxx Linker V03.00/V05.40 + sdld,  page 19.
Hexadecimal  [32-Bits]

Area                                    Addr        Size        Decimal Bytes (Attributes)
--------------------------------        ----        ----        ------- ----- ------------
.  .ABS.                            00000000    00000000 =           0. bytes (ABS,CON)

      Value  Global                              Global Defined In Module
      -----  --------------------------------   ------------------------
     00004000  l__CODE_15                      
     00004000  l__CODE_2                       
     00004000  l__CODE_3                       
     00004000  l__CODE_4                       
     00004000  l__CODE_5                       
     00004000  l__CODE_6                       
     00004000  l__CODE_8                       
     00004000  l__CODE_9                       
     00006000  _RTC_LATCH_REG                     vm_rtc
     00008000  __VRAM                             
     00008000  __VRAM8000                         
     00008800  __VRAM8800                         
     00009000  __VRAM9000                         
     00009800  __SCRN0                            
     00009C00  __SCRN1                            
     0000A000  _RTC_VALUE_REG                     vm_rtc
     0000A000  __SRAM                             
     0000C000  __RAM                              
     0000C000  _shadow_OAM                     
     0000C0A0  s__DATA                         
     0000D000  __RAMBANK                          
     0000DA32  s__BSS                          
     0000DA32  s__INITIALIZED                  
     0000DA4C  s__HEAP                         
     0000DA4C  s__HEAP_END                     
     0000DF00  .STACK                          
     0000DF00  _shadow_OAM2                       absolute
     0000DFA0  _BkgPalette                        absolute
     0000DFE0  _vwf_tile_data                     absolute
     0000FE00  __OAMRAM                           
     0000FF00  _P1_REG                            
     0000FF00  __IO                               
     0000FF01  _SB_REG                            
     0000FF02  _SC_REG                            
     0000FF04  _DIV_REG                           
     0000FF05  _TIMA_REG                          
     0000FF06  _TMA_REG                           
     0000FF07  _TAC_REG                           
     0000FF0F  _IF_REG                            
     0000FF10  _NR10_REG                          
     0000FF11  _NR11_REG                          
     0000FF12  _NR12_REG                          
     0000FF13  _NR13_REG                          
     0000FF14  _NR14_REG                          
     0000FF16  _NR21_REG                          
     0000FF17  _NR22_REG                          
     0000FF18  _NR23_REG                          
     0000FF19  _NR24_REG                          
     0000FF1A  _NR30_REG                          
     0000FF1B  _NR31_REG                          
     0000FF1C  _NR32_REG                          
ASxxxx Linker V03.00/V05.40 + sdld,  page 20.
Hexadecimal  [32-Bits]

Area                                    Addr        Size        Decimal Bytes (Attributes)
--------------------------------        ----        ----        ------- ----- ------------
.  .ABS.                            00000000    00000000 =           0. bytes (ABS,CON)

      Value  Global                              Global Defined In Module
      -----  --------------------------------   ------------------------
     0000FF1D  _NR33_REG                          
     0000FF1E  _NR34_REG                          
     0000FF20  _NR41_REG                          
     0000FF21  _NR42_REG                          
     0000FF22  _NR43_REG                          
     0000FF23  _NR44_REG                          
     0000FF24  _NR50_REG                          
     0000FF25  _NR51_REG                          
     0000FF26  _NR52_REG                          
     0000FF30  _AUD3WAVE                          
     0000FF30  _PCM_SAMPLE                        
     0000FF30  __AUD3WAVERAM                      
     0000FF40  _LCDC_REG                          
     0000FF41  _STAT_REG                          
     0000FF42  _SCY_REG                           
     0000FF43  _SCX_REG                           
     0000FF44  _LY_REG                            
     0000FF45  _LYC_REG                           
     0000FF46  _DMA_REG                           
     0000FF47  _BGP_REG                           
     0000FF48  _OBP0_REG                          
     0000FF49  _OBP1_REG                          
     0000FF4A  _WY_REG                            
     0000FF4B  _WX_REG                            
     0000FF4D  _KEY1_REG                          
     0000FF4F  _VBK_REG                           
     0000FF51  _HDMA1_REG                         
     0000FF52  _HDMA2_REG                         
     0000FF53  _HDMA3_REG                         
     0000FF54  _HDMA4_REG                         
     0000FF55  _HDMA5_REG                         
     0000FF56  _RP_REG                            
     0000FF68  _BCPS_REG                          
     0000FF69  _BCPD_REG                          
     0000FF6A  _OCPS_REG                          
     0000FF6B  _OCPD_REG                          
     0000FF70  _SVBK_REG                          
     0000FF76  _PCM12_REG                         
     0000FF77  _PCM34_REG                         
     0000FF80  .refresh_OAM                    
     0000FF80  __HRAM                             
     0000FFFF  _IE_REG                            
     00014000  s__CODE_1                       
     00024000  s__CODE_2                       
     00034000  s__CODE_3                       
     00044000  s__CODE_4                       
     00054000  s__CODE_5                       
     00064000  s__CODE_6                       
     00074000  s__CODE_7                       
     00084000  s__CODE_8                       
     00094000  s__CODE_9                       
ASxxxx Linker V03.00/V05.40 + sdld,  page 21.
Hexadecimal  [32-Bits]

Area                                    Addr        Size        Decimal Bytes (Attributes)
--------------------------------        ----        ----        ------- ----- ------------
.  .ABS.                            00000000    00000000 =           0. bytes (ABS,CON)

      Value  Global                              Global Defined In Module
      -----  --------------------------------   ------------------------
     000A4000  s__CODE_10                      
     000B4000  s__CODE_11                      
     000C4000  s__CODE_12                      
     000D4000  s__CODE_13                      
     000E4000  s__CODE_14                      
     000F4000  s__CODE_15                      
     00104000  s__CODE_16                      
     00114000  s__CODE_17                      
     00124000  s__CODE_18                      
     00134000  s__CODE_19                      
     00144000  s__CODE_20                      

ASxxxx Linker V03.00/V05.40 + sdld,  page 22.
Hexadecimal  [32-Bits]

Area                                    Addr        Size        Decimal Bytes (Attributes)
--------------------------------        ----        ----        ------- ----- ------------
_CODE                               00000200    00000EEA =        3818. bytes (REL,CON)

      Value  Global                              Global Defined In Module
      -----  --------------------------------   ------------------------
     00000200  ___HandleCrash                     
     0000020A  _SIO_send_byte                     
     0000021D  _SIO_receive                       
     0000022E  _GetWinAddr                        
     00000236  _GetBkgAddr                        
     00000244  _state_init                        
     00000249  _state_update                      
     0000026B  _ui_time_masks                     
     00000273  _ui_print_shift_char               
     000002F6  _ui_draw_frame_row                 
     000002FF  .ui_draw_frame_row                 
     00000328  _script_cmds                       vm_instructions
     00000560  _save_signature                    game_signature
     00000564  _start_scene_x                     
     00000566  _start_scene_y                     
     00000568  _start_scene_dir                   
     00000569  _start_scene                       
     0000056C  _start_player_move_speed           
     0000056D  _start_player_anim_tick            
     0000056E  _ui_fonts                          
     00000580  _core_reset_hook                   main
     00000588  _main                              main
     00000590  _state_start_fns                   
     000005A2  _state_update_fns                  
     000005B4  _hUGE_init                         hUGEDriver_obj
     000005B6  hUGE_init                          hUGEDriver_obj
     0000060C  _hUGE_mute_channel                 hUGEDriver_obj
     0000060E  hUGE_mute_channel                  hUGEDriver_obj
     0000085C  _hUGE_set_position                 hUGEDriver_obj
     0000085E  hUGE_set_position                  hUGEDriver_obj
     00000A23  _hUGE_dosound                      hUGEDriver_obj
     00000A23  hUGE_dosound                       hUGEDriver_obj
     00000D4F  _get_vram_byte                     
     00000D57  _get_win_tile_xy                   
     00000D5F  _get_bkg_tile_xy                   
     00000D86  _set_sprite_palette                CGB
     00000D8B  _set_bkg_palette                   CGB
     00000D8E  .set_palette                       CGB
     00000DAD  _set_sprite_palette_entry          CGB
     00000DB2  _set_bkg_palette_entry             CGB
     00000DB5  .set_palette_entry                 CGB
     00000DD1  _hide_sprites_range                Metasprites
     00000E00  __mulsuchar                        mul
     00000E03  __muluschar                        mul
     00000E0C  __mulschar                         mul
     00000E14  __mulint                           mul
     00000E33  __muluchar                         mul
     00000E45  _set_vram_byte                     
     00000E4E  _set_win_tile_xy                   
     00000E56  _set_bkg_tile_xy                   
ASxxxx Linker V03.00/V05.40 + sdld,  page 23.
Hexadecimal  [32-Bits]

Area                                    Addr        Size        Decimal Bytes (Attributes)
--------------------------------        ----        ----        ------- ----- ------------
_CODE                               00000200    00000EEA =        3818. bytes (REL,CON)

      Value  Global                              Global Defined In Module
      -----  --------------------------------   ------------------------
     00000E80  .sgb_check                         
     00000E80  _sgb_check                         
     00000EC8  _sgb_transfer                      
     00000ECD  .sgb_transfer                      
     00000F0E  .copy_vram                         
     00000F14  _get_data                          
     00000F14  _set_data                          
     00000F14  _vmemcpy                           
     00000F62  ___move_metasprite                 Metasprites
     00000F9F  ___memcpy                          
     00000F9F  _memcpy                            
     00000FD1  _strcat                            strcat
     00000FE1  _cpu_slow                          CGB
     00000FFC  _cpu_fast                          CGB
     00001003  __divsuchar                        divmod
     00001009  __modsuchar                        divmod
     00001012  __divuschar                        divmod
     0000101B  __moduschar                        divmod
     00001027  __divschar                         divmod
     0000102C  __modschar                         divmod
     00001033  __divsint                          divmod
     0000103C  __modsint                          divmod
     00001048  __divuchar                         divmod
     0000104D  __moduchar                         divmod
     00001054  __divuint                          divmod
     0000105D  __moduint                          divmod
     00001069  .div8                              divmod
     00001069  .mod8                              divmod
     00001071  .div16                             divmod
     00001071  .mod16                             divmod
     000010A7  .divu8                             divmod
     000010A7  .modu8                             divmod
     000010AA  .divu16                            divmod
     000010AA  .modu16                            divmod
ASxxxx Linker V03.00/V05.40 + sdld,  page 24.
Hexadecimal  [32-Bits]

Area                                    Addr        Size        Decimal Bytes (Attributes)
--------------------------------        ----        ----        ------- ----- ------------
_HEADER0                            00000000    00000001 =           1. bytes (ABS,CON)

      Value  Global                              Global Defined In Module
      -----  --------------------------------   ------------------------
     00000020  .call_hl                           Runtime

ASxxxx Linker V03.00/V05.40 + sdld,  page 25.
Hexadecimal  [32-Bits]

Area                                    Addr        Size        Decimal Bytes (Attributes)
--------------------------------        ----        ----        ------- ----- ------------
_HEADER1                            00000000    00000005 =           5. bytes (ABS,CON)

      Value  Global                              Global Defined In Module
      -----  --------------------------------   ------------------------
     00000028  .MemsetSmall                       Runtime

ASxxxx Linker V03.00/V05.40 + sdld,  page 26.
Hexadecimal  [32-Bits]

Area                                    Addr        Size        Decimal Bytes (Attributes)
--------------------------------        ----        ----        ------- ----- ------------
_HEADER2                            00000000    00000007 =           7. bytes (ABS,CON)

      Value  Global                              Global Defined In Module
      -----  --------------------------------   ------------------------
     00000030  .MemcpySmall                       Runtime

ASxxxx Linker V03.00/V05.40 + sdld,  page 27.
Hexadecimal  [32-Bits]

Area                                    Addr        Size        Decimal Bytes (Attributes)
--------------------------------        ----        ----        ------- ----- ------------
_HEADER3                            00000000    00000008 =           8. bytes (ABS,CON)

      Value  Global                              Global Defined In Module
      -----  --------------------------------   ------------------------
ASxxxx Linker V03.00/V05.40 + sdld,  page 28.
Hexadecimal  [32-Bits]

Area                                    Addr        Size        Decimal Bytes (Attributes)
--------------------------------        ----        ----        ------- ----- ------------
_HEADER4                            00000000    00000060 =          96. bytes (ABS,CON)

      Value  Global                              Global Defined In Module
      -----  --------------------------------   ------------------------
     00000080  .int                               Runtime
     0000008F  _wait_int_handler                  Runtime
     0000009C  __standard_VBL_handler             Runtime
     000000AB  _refresh_OAM                       Runtime
     000000CC  _set_interrupts                    Runtime

ASxxxx Linker V03.00/V05.40 + sdld,  page 29.
Hexadecimal  [32-Bits]

Area                                    Addr        Size        Decimal Bytes (Attributes)
--------------------------------        ----        ----        ------- ----- ------------
_HEADER5                            00000000    00000001 =           1. bytes (ABS,CON)

      Value  Global                              Global Defined In Module
      -----  --------------------------------   ------------------------
ASxxxx Linker V03.00/V05.40 + sdld,  page 30.
Hexadecimal  [32-Bits]

Area                                    Addr        Size        Decimal Bytes (Attributes)
--------------------------------        ----        ----        ------- ----- ------------
_HEADER6                            00000000    00000002 =           2. bytes (ABS,CON)

      Value  Global                              Global Defined In Module
      -----  --------------------------------   ------------------------
ASxxxx Linker V03.00/V05.40 + sdld,  page 31.
Hexadecimal  [32-Bits]

Area                                    Addr        Size        Decimal Bytes (Attributes)
--------------------------------        ----        ----        ------- ----- ------------
_HEADER7                            00000000    00000030 =          48. bytes (ABS,CON)

      Value  Global                              Global Defined In Module
      -----  --------------------------------   ------------------------
ASxxxx Linker V03.00/V05.40 + sdld,  page 32.
Hexadecimal  [32-Bits]

Area                                    Addr        Size        Decimal Bytes (Attributes)
--------------------------------        ----        ----        ------- ----- ------------
_HEADER8                            00000000    00000006 =           6. bytes (ABS,CON)

      Value  Global                              Global Defined In Module
      -----  --------------------------------   ------------------------
ASxxxx Linker V03.00/V05.40 + sdld,  page 33.
Hexadecimal  [32-Bits]

Area                                    Addr        Size        Decimal Bytes (Attributes)
--------------------------------        ----        ----        ------- ----- ------------
_HEADER9                            00000000    00000003 =           3. bytes (ABS,CON)

      Value  Global                              Global Defined In Module
      -----  --------------------------------   ------------------------
ASxxxx Linker V03.00/V05.40 + sdld,  page 34.
Hexadecimal  [32-Bits]

Area                                    Addr        Size        Decimal Bytes (Attributes)
--------------------------------        ----        ----        ------- ----- ------------
_HEADERa                            00000000    00000001 =           1. bytes (ABS,CON)

      Value  Global                              Global Defined In Module
      -----  --------------------------------   ------------------------
ASxxxx Linker V03.00/V05.40 + sdld,  page 35.
Hexadecimal  [32-Bits]

Area                                    Addr        Size        Decimal Bytes (Attributes)
--------------------------------        ----        ----        ------- ----- ------------
_HEADERb                            00000000    00000001 =           1. bytes (ABS,CON)

      Value  Global                              Global Defined In Module
      -----  --------------------------------   ------------------------
ASxxxx Linker V03.00/V05.40 + sdld,  page 36.
Hexadecimal  [32-Bits]

Area                                    Addr        Size        Decimal Bytes (Attributes)
--------------------------------        ----        ----        ------- ----- ------------
_HEADERc                            00000000    00000001 =           1. bytes (ABS,CON)

      Value  Global                              Global Defined In Module
      -----  --------------------------------   ------------------------
ASxxxx Linker V03.00/V05.40 + sdld,  page 37.
Hexadecimal  [32-Bits]

Area                                    Addr        Size        Decimal Bytes (Attributes)
--------------------------------        ----        ----        ------- ----- ------------
_HEADERd                            00000000    00000002 =           2. bytes (ABS,CON)

      Value  Global                              Global Defined In Module
      -----  --------------------------------   ------------------------
ASxxxx Linker V03.00/V05.40 + sdld,  page 38.
Hexadecimal  [32-Bits]

Area                                    Addr        Size        Decimal Bytes (Attributes)
--------------------------------        ----        ----        ------- ----- ------------
_HEADERe                            00000000    00000001 =           1. bytes (ABS,CON)

      Value  Global                              Global Defined In Module
      -----  --------------------------------   ------------------------
ASxxxx Linker V03.00/V05.40 + sdld,  page 39.
Hexadecimal  [32-Bits]

Area                                    Addr        Size        Decimal Bytes (Attributes)
--------------------------------        ----        ----        ------- ----- ------------
_HEADERf                            00000000    00000001 =           1. bytes (ABS,CON)

      Value  Global                              Global Defined In Module
      -----  --------------------------------   ------------------------
ASxxxx Linker V03.00/V05.40 + sdld,  page 40.
Hexadecimal  [32-Bits]

Area                                    Addr        Size        Decimal Bytes (Attributes)
--------------------------------        ----        ----        ------- ----- ------------
_HEADER10                           00000000    00000002 =           2. bytes (ABS,CON)

      Value  Global                              Global Defined In Module
      -----  --------------------------------   ------------------------
ASxxxx Linker V03.00/V05.40 + sdld,  page 41.
Hexadecimal  [32-Bits]

Area                                    Addr        Size        Decimal Bytes (Attributes)
--------------------------------        ----        ----        ------- ----- ------------
_HEADER11                           00000000    000000AB =         171. bytes (ABS,CON)

      Value  Global                              Global Defined In Module
      -----  --------------------------------   ------------------------
     00000150  .reset                             Runtime
     00000150  _reset                             Runtime
     00000157  .code_start                        Runtime
     000001B9  _exit                              Runtime
     000001BD  .wait_vbl_done                     Runtime
     000001BD  _vsync                             Runtime
     000001BD  _wait_vbl_done                     Runtime
     000001CD  .remove_VBL                        Runtime
     000001CD  _remove_VBL                        Runtime
     000001D0  .remove_int                        Runtime
     000001ED  .add_VBL                           Runtime
     000001ED  _add_VBL                           Runtime
     000001F0  .add_int                           Runtime

ASxxxx Linker V03.00/V05.40 + sdld,  page 42.
Hexadecimal  [32-Bits]

Area                                    Addr        Size        Decimal Bytes (Attributes)
--------------------------------        ----        ----        ------- ----- ------------
_HOME                               000010EA    00002B4C =       11084. bytes (REL,CON)

      Value  Global                              Global Defined In Module
      -----  --------------------------------   ------------------------
     000010EA  .memset_simple                     Runtime
     000010F3  .memcpy_simple                     Runtime
     00001110  .display_off                       Runtime
     00001110  _display_off                       Runtime
     00001128  _actors_update                     actor
     00001527  _SetBankedBkgData                  bankdata
     00001543  _SetBankedSpriteData               bankdata
     0000155F  _SetBankedBkgTiles                 bankdata
     0000157B  _SetBankedWinTiles                 bankdata
     00001597  _ReadBankedFarPtr                  bankdata
     000015B9  _ReadBankedUWORD                   bankdata
     000015D3  _MemcpyBanked                      bankdata
     000015F5  _MemcpyVRAMBanked                  bankdata
     00001624  _IndexOfFarPtr                     bankdata
     000016A9  _camera_update                     camera
     000017DC  _load_animations                   data_manager
     00001835  _events_update                     events
     00001908  _timers_update                     events
     00001991  _input_update                      input
     000019B4  .sio_ISR                           
     00001A0E  .timer_ISR                         
     00001A23  _simple_LCD_isr                    interrupts
     00001AA2  _fullscreen_LCD_isr                interrupts
     00001ACE  _VBL_isr                           interrupts
     00001B18  _isqrt                             math
     00001B75  _sine_wave                         math
     00001C75  _dir_lookup                        math
     00001C7D  _dir_angle_lookup                  math
     00001C81  _hUGETrackerRoutine                music_manager
     00001CA8  _music_events_update               music_manager
     00001D2A  _music_play_isr                    music_manager
     00001DCB  _parallax_LCD_isr                  parallax
     00001E08  _projectiles_update                projectiles
     00002289  _projectiles_render                projectiles
     000023DE  _scroll_load_pending_row           scroll
     00002464  _scroll_load_row                   scroll
     000024D9  _scroll_load_col                   scroll
     00002542  _scroll_load_pending_col           scroll
     000025CA  _set_bkg_submap                    
     0000260D  _set_xy_win_submap                 
     0000263A  .set_xy_win_submap                 
     00002643  .set_xy_bkg_submap                 
     00002652  .set_xy_submap                     
     0000269C  _sfx_play_isr                      sfx_player
     00002775  _on_SIO_receive                    sio
     000027B4  _SIO_update                        sio
     00002818  _ui_update                         ui
     00002950  _vm_sgb_transfer                   vm_sgb
     0000299D  _vm_load_text                      vm_ui
     00002BF3  _vm_switch                         vm
ASxxxx Linker V03.00/V05.40 + sdld,  page 43.
Hexadecimal  [32-Bits]

Area                                    Addr        Size        Decimal Bytes (Attributes)
--------------------------------        ----        ----        ------- ----- ------------
_HOME                               000010EA    00002B4C =       11084. bytes (REL,CON)

      Value  Global                              Global Defined In Module
      -----  --------------------------------   ------------------------
     00002D24  _vm_beginthread                    vm
     00002E48  _vm_rpn                            vm
     00003621  _vm_get_far                        vm
     0000368F  _vm_call_native                    vm
     000036A2  _VM_STEP                           vm
     0000370C  _script_runner_update              vm
     00003871  _fill_win_rect                     
     00003883  _rand                              
     00003883  _randw                             
     000038AE  _initrand                          
     000038B0  .initrand                          
     000038B9  _get_bkg_data                      
     000038B9  _get_win_data                      
     00003906  _get_sprite_data                   
     00003939  _uitoa                             itoa
     00003948  _itoa                              itoa
     00003957  .itoa                              itoa
     0000396B  .utoa                              itoa
     000039DF  _abs                               abs
     000039EE  _set_win_tiles                     
     00003A02  _set_tile_data                     
     00003A07  _set_bkg_data                      
     00003A07  _set_win_data                      
     00003A0F  _set_sprite_data                   
     00003A3F  _reverse                           reverse
     00003A73  ___call__banked                    far_ptr
     00003A90  _to_far_ptr                        far_ptr
     00003AC6  .add_LCD                           
     00003AC6  _add_LCD                           
     00003ACC  .remove_LCD                        
     00003ACC  _remove_LCD                        
     00003AD2  .fill_rect_wtt                     
     00003ADB  .fill_rect_btt                     
     00003B28  _fill_bkg_rect                     
     00003B3A  .padup                             
     00003B3A  _waitpadup                         
     00003B4A  .jpad                              
     00003B4A  _joypad                            
     00003B72  _waitpad                           
     00003B73  .wait_pad                          
     00003B7A  ___sdcc_call_hl                    call_hl
     00003B7B  _memset                            memset
     00003BAE  .set_xy_wtt                        SetTileMap
     00003BB7  .set_xy_btt                        SetTileMap
     00003BC6  .set_xy_tt                         SetTileMap
     00003C08  ___sdcc_bcall_ehl                  
     00003C22  _set_bkg_tiles                     

ASxxxx Linker V03.00/V05.40 + sdld,  page 44.
Hexadecimal  [32-Bits]

Area                                    Addr        Size        Decimal Bytes (Attributes)
--------------------------------        ----        ----        ------- ----- ------------
_INITIALIZER                        00003C36    0000001A =          26. bytes (REL,CON)

      Value  Global                              Global Defined In Module
      -----  --------------------------------   ------------------------
ASxxxx Linker V03.00/V05.40 + sdld,  page 45.
Hexadecimal  [32-Bits]

Area                                    Addr        Size        Decimal Bytes (Attributes)
--------------------------------        ----        ----        ------- ----- ------------
_GSINIT                             00003C50    00000027 =          39. bytes (REL,CON)

      Value  Global                              Global Defined In Module
      -----  --------------------------------   ------------------------
     00003C50  gsinit                             Runtime

ASxxxx Linker V03.00/V05.40 + sdld,  page 46.
Hexadecimal  [32-Bits]

Area                                    Addr        Size        Decimal Bytes (Attributes)
--------------------------------        ----        ----        ------- ----- ------------
_GSFINAL                            00003C77    00000001 =           1. bytes (REL,CON)

      Value  Global                              Global Defined In Module
      -----  --------------------------------   ------------------------
ASxxxx Linker V03.00/V05.40 + sdld,  page 47.
Hexadecimal  [32-Bits]

Area                                    Addr        Size        Decimal Bytes (Attributes)
--------------------------------        ----        ----        ------- ----- ------------
_DATA                               0000C0A0    00001992 =        6546. bytes (REL,CON)

      Value  Global                              Global Defined In Module
      -----  --------------------------------   ------------------------
     0000C0A0  __cpu                              Runtime
     0000C0A1  __is_GBA                           Runtime
     0000C0A2  .mode                              Runtime
     0000C0A3  .sys_time                          Runtime
     0000C0A3  _sys_time                          Runtime
     0000C0A5  .int_0x40                          Runtime
     0000C0B1  _actors                            actor
     0000C4F5  _actors_active_head                actor
     0000C4F7  _actors_active_tail                actor
     0000C4F9  _actors_inactive_head              actor
     0000C4FB  _screen_x                          actor
     0000C4FC  _screen_y                          actor
     0000C4FD  _invalid                           actor
     0000C4FF  _player_moving                     actor
     0000C500  _player_iframes                    actor
     0000C501  _player_collision_actor            actor
     0000C503  _emote_actor                       actor
     0000C505  _emote_timer                       actor
     0000C506  _allocated_sprite_tiles            actor
     0000C507  _allocated_hardware_sprites        actor
     0000C513  _camera_x                          camera
     0000C515  _camera_y                          camera
     0000C517  _camera_offset_x                   camera
     0000C518  _camera_offset_y                   camera
     0000C519  _camera_deadzone_x                 camera
     0000C51A  _camera_deadzone_y                 camera
     0000C51B  _camera_settings                   camera
     0000C51F  _current_scene                     data_manager
     0000C522  _image_bank                        data_manager
     0000C523  _image_ptr                         data_manager
     0000C525  _image_attr_bank                   data_manager
     0000C526  _image_attr_ptr                    data_manager
     0000C528  _collision_bank                    data_manager
     0000C529  _collision_ptr                     data_manager
     0000C52B  _image_tile_width                  data_manager
     0000C52C  _image_tile_height                 data_manager
     0000C52D  _image_width                       data_manager
     0000C52F  _image_height                      data_manager
     0000C531  _sprites_len                       data_manager
     0000C532  _actors_len                        data_manager
     0000C533  _projectiles_len                   data_manager
     0000C534  _player_sprite_len                 data_manager
     0000C535  _scene_type                        data_manager
     0000C536  _scene_LCD_type                    data_manager
     0000C537  _scene_stack                       data_manager
     0000C577  _scene_stack_ptr                   data_manager
     0000C579  _scene_sprites_base_tiles          data_manager
     0000C5B9  _input_events                      events
     0000C5E1  _input_slots                       events
     0000C5E9  _timer_events                      events
ASxxxx Linker V03.00/V05.40 + sdld,  page 48.
Hexadecimal  [32-Bits]

Area                                    Addr        Size        Decimal Bytes (Attributes)
--------------------------------        ----        ----        ------- ----- ------------
_DATA                               0000C0A0    00001992 =        6546. bytes (REL,CON)

      Value  Global                              Global Defined In Module
      -----  --------------------------------   ------------------------
     0000C5FD  _timer_values                      events
     0000C605  _fade_running                      fade_manager
     0000C606  _fade_frames_per_step              fade_manager
     0000C607  _fade_timer                        fade_manager
     0000C60F  _joypads                           input
     0000C614  _frame_joy                         input
     0000C615  _last_joy                          input
     0000C616  _recent_joy                        input
     0000C617  _SIO_status                        
     0000C618  _link_byte_sent                    
     0000C619  _link_next_mode                    
     0000C61A  _save_blob_size                    load_save
     0000C61C  _routine_queue                     music_manager
     0000C620  _routine_queue_head                music_manager
     0000C621  _routine_queue_tail                music_manager
     0000C622  _music_events                      music_manager
     0000C636  _music_current_track_bank          music_manager
     0000C637  _music_mute_mask                   music_manager
     0000C638  _music_effective_mute              music_manager
     0000C639  _music_next_track                  music_manager
     0000C63B  _music_current_track               music_manager
     0000C63D  _music_play_isr_counter            music_manager
     0000C63E  _music_play_isr_pause              music_manager
     0000C63F  _music_global_mute_mask            music_manager
     0000C640  _music_sfx_priority                music_manager
     0000C641  _DMG_palette                       palette
     0000C644  _SprPalette                        palette
     0000C684  _parallax_rows                     parallax
     0000C696  _parallax_row                      parallax
     0000C698  _projectiles                       projectiles
     0000C751  _projectile_defs                   projectiles
     0000C7C4  _projectiles_active_head           projectiles
     0000C7C6  _projectiles_inactive_head         projectiles
     0000C7CD  _scroll_x                          scroll
     0000C7CF  _scroll_y                          scroll
     0000C7D1  _draw_scroll_x                     scroll
     0000C7D3  _draw_scroll_y                     scroll
     0000C7D5  _scroll_x_max                      scroll
     0000C7D7  _scroll_y_max                      scroll
     0000C7D9  _scroll_offset_x                   scroll
     0000C7DA  _scroll_offset_y                   scroll
     0000C7DB  _pending_h_x                       scroll
     0000C7DC  _pending_h_y                       scroll
     0000C7DD  _pending_h_i                       scroll
     0000C7DE  _pending_w_x                       scroll
     0000C7DF  _pending_w_y                       scroll
     0000C7E0  _pending_w_i                       scroll
     0000C7E1  _current_row                       scroll
     0000C7E3  _new_row                           scroll
     0000C7E5  _current_col                       scroll
     0000C7E7  _new_col                           scroll
ASxxxx Linker V03.00/V05.40 + sdld,  page 49.
Hexadecimal  [32-Bits]

Area                                    Addr        Size        Decimal Bytes (Attributes)
--------------------------------        ----        ----        ------- ----- ------------
_DATA                               0000C0A0    00001992 =        6546. bytes (REL,CON)

      Value  Global                              Global Defined In Module
      -----  --------------------------------   ------------------------
     0000C7E9  .image_tile_width                  
     0000C7EA  _sfx_play_bank                     sfx_player
     0000C7EB  _sfx_play_sample                   sfx_player
     0000C7ED  _sfx_frame_skip                    sfx_player
     0000C7EE  _link_operation_mode               sio
     0000C7EF  _link_packet                       sio
     0000C80F  _link_packet_len                   sio
     0000C810  _link_packet_ptr                   sio
     0000C812  _link_packet_received              sio
     0000C813  _link_packet_snd_len               sio
     0000C814  _link_packet_snd_ptr               sio
     0000C816  _link_packet_sent                  sio
     0000C817  __is_CGB                           system
     0000C818  __is_SGB                           system
     0000C819  __current_ram_bank                 system
     0000C81A  _triggers                          trigger
     0000C912  _last_trigger_tx                   trigger
     0000C913  _last_trigger_ty                   trigger
     0000C914  _last_trigger                      trigger
     0000C915  _win_pos_x                         ui
     0000C916  _win_dest_pos_x                    ui
     0000C917  _win_pos_y                         ui
     0000C918  _win_dest_pos_y                    ui
     0000C919  _win_speed                         ui
     0000C91A  _text_drawn                        ui
     0000C91B  _current_text_speed                ui
     0000C91C  _text_wait                         ui
     0000C91D  _text_options                      ui
     0000C91E  _text_in_speed                     ui
     0000C91F  _text_out_speed                    ui
     0000C920  _text_draw_speed                   ui
     0000C921  _text_ff_joypad                    ui
     0000C922  _text_ff                           ui
     0000C923  _text_bkg_fill                     ui
     0000C924  _ui_text_data                      ui
     0000CA2E  _vwf_current_mask                  ui
     0000CA2F  _vwf_current_rotate                ui
     0000CA30  _vwf_inverse_map                   ui
     0000CA31  _vwf_direction                     ui
     0000CA32  _vwf_current_font_desc             ui
     0000CA3A  _vwf_current_font_bank             ui
     0000CA3B  _vwf_current_font_idx              ui
     0000CA3C  _text_render_base_addr             ui
     0000CA3E  _text_scroll_addr                  ui
     0000CA40  _text_scroll_width                 ui
     0000CA41  _text_scroll_height                ui
     0000CA42  _text_scroll_fill                  ui
     0000CA43  _text_sound_mask                   ui
     0000CA44  _text_sound_bank                   ui
     0000CA45  _text_sound_data                   ui
     0000CA47  _overlay_priority                  ui
ASxxxx Linker V03.00/V05.40 + sdld,  page 50.
Hexadecimal  [32-Bits]

Area                                    Addr        Size        Decimal Bytes (Attributes)
--------------------------------        ----        ----        ------- ----- ------------
_DATA                               0000C0A0    00001992 =        6546. bytes (REL,CON)

      Value  Global                              Global Defined In Module
      -----  --------------------------------   ------------------------
     0000CA48  _text_palette                      ui
     0000CA4F  __itoa_fmt_len                     vm_ui_a
     0000CA50  .itoa_fmt_buf                      vm_ui_a
     0000CA53  _CTXS                              vm
     0000CB83  _first_ctx                         vm
     0000CB85  _free_ctxs                         vm
     0000CB87  _old_executing_ctx                 vm
     0000CB89  _executing_ctx                     vm
     0000CB8B  _vm_lock_state                     vm
     0000CB8C  _vm_loaded_state                   vm
     0000CB8D  _vm_exception_code                 vm
     0000CB8E  _vm_exception_params_length        vm
     0000CB8F  _vm_exception_params_bank          vm
     0000CB90  _vm_exception_params_offset        vm
     0000CB93  _script_memory                     vm
     0000D999  _grounded                          platform
     0000D99A  _on_slope                          platform
     0000D99B  _slope_y                           platform
     0000D99C  _on_ladder                         platform
     0000D99D  _pl_vel_x                          platform
     0000D99F  _pl_vel_y                          platform
     0000D9A1  _plat_min_vel                      platform
     0000D9A3  _plat_walk_vel                     platform
     0000D9A5  _plat_climb_vel                    platform
     0000D9A7  _plat_run_vel                      platform
     0000D9A9  _plat_walk_acc                     platform
     0000D9AB  _plat_run_acc                      platform
     0000D9AD  _plat_dec                          platform
     0000D9AF  _plat_jump_vel                     platform
     0000D9B1  _plat_grav                         platform
     0000D9B3  _plat_hold_grav                    platform
     0000D9B5  _plat_max_fall_vel                 platform
     0000D9B7  _shooter_reached_end               shmup
     0000D9B8  _shooter_dest                      shmup
     0000D9BA  _shooter_direction                 shmup
     0000D9BB  _topdown_grid                      topdown
     0000D9BC  ___rand_seed                       
     0000D9DA  _hUGE_current_wave                 hUGEDriver_obj
     0000D9DA  hUGE_current_wave                  hUGEDriver_obj
     0000D9DB  _hUGE_mute_mask                    hUGEDriver_obj
     0000DA22  ___call_banked_addr                far_ptr
     0000DA22  ___call_banked_ptr                 far_ptr
     0000DA24  ___call_banked_bank                far_ptr
     0000DA26  .int_0x48                          
     0000DA2E  ___current_metasprite              Metasprites
     0000DA30  ___current_base_tile               Metasprites
     0000DA31  ___current_base_prop               Metasprites

ASxxxx Linker V03.00/V05.40 + sdld,  page 51.
Hexadecimal  [32-Bits]

Area                                    Addr        Size        Decimal Bytes (Attributes)
--------------------------------        ----        ----        ------- ----- ------------
_INITIALIZED                        0000DA32    0000001A =          26. bytes (REL,CON)

      Value  Global                              Global Defined In Module
      -----  --------------------------------   ------------------------
     0000DA32  _fade_style                        fade_manager
     0000DA33  _game_time                         game_time
     0000DA34  _PRN_PKT_START                     gbprinter
     0000DA42  _hide_sprites                      interrupts
     0000DA43  _show_actors_on_overlay            interrupts
     0000DA44  _overlay_cut_scanline              interrupts
     0000DA45  __submap_tile_offset               
     0000DA46  _triggers_len                      trigger
     0000DA47  _exchange_state                    vm_sio
     0000DA48  _last_hit_trigger                  pointnclick
     0000DA49  _shooter_scroll_speed              shmup
     0000DA4A  ___render_shadow_OAM               Metasprites
     0000DA4B  __map_tile_offset                  SetTileMap

ASxxxx Linker V03.00/V05.40 + sdld,  page 52.
Hexadecimal  [32-Bits]

Area                                    Addr        Size        Decimal Bytes (Attributes)
--------------------------------        ----        ----        ------- ----- ------------
_HRAM12                             00000000    00000003 =           3. bytes (ABS,CON)

      Value  Global                              Global Defined In Module
      -----  --------------------------------   ------------------------
     0000FF90  __current_bank                     Runtime
     0000FF92  __shadow_OAM_base                  Runtime

ASxxxx Linker V03.00/V05.40 + sdld,  page 53.
Hexadecimal  [32-Bits]

Area                                    Addr        Size        Decimal Bytes (Attributes)
--------------------------------        ----        ----        ------- ----- ------------
_CODE_4                             00044000    00004000 =       16384. bytes (REL,CON)

      Value  Global                              Global Defined In Module
      -----  --------------------------------   ------------------------
     00044000  ___func_ACTOR                      actor
     00044000  _actors_init                       actor
     0004403A  _emote_offsets                     actor
     00044049  _emote_metasprite                  actor
     00044055  _player_init                       actor
     0004406A  _deactivate_actor                  actor
     000441CB  _activate_actor                    actor
     0004430A  _activate_actors_in_row            actor
     00044401  _activate_actors_in_col            actor
     00044552  _actor_set_frames                  actor
     000445A8  _actor_set_frame_offset            actor
     000445E3  _actor_get_frame_offset            actor
     000445F5  _actor_set_anim_idle               actor
     00044623  _actor_set_anim_moving             actor
     00044654  _actor_set_dir                     actor
     000446B9  _actor_at_tile                     actor
     0004478D  _actor_in_front_of_player          actor
     00044841  _actor_overlapping_player          actor
     00044ADA  _actor_overlapping_bb              actor
     00044CF9  _actors_handle_player_collision    actor
     00044D85  _check_collision_in_direction      actor
     000455A3  ___func_VM_ACTOR                   vm_actor
     000455A3  _vm_actor_move_to                  vm_actor
     00045F3F  _vm_actor_move_cancel              vm_actor
     00045F75  _vm_actor_activate                 vm_actor
     00045FC6  _vm_actor_deactivate               vm_actor
     00046017  _vm_actor_begin_update             vm_actor
     0004609E  _vm_actor_terminate_update         vm_actor
     000460E5  _vm_actor_set_dir                  vm_actor
     0004612E  _vm_actor_set_anim                 vm_actor
     000461BC  _vm_actor_set_pos                  vm_actor
     00046236  _vm_actor_get_pos                  vm_actor
     000462A5  _vm_actor_get_dir                  vm_actor
     0004631F  _vm_actor_get_angle                vm_actor
     000463A0  _vm_actor_emote                    vm_actor
     00046464  _vm_actor_set_bounds               vm_actor
     000464C2  _vm_actor_set_spritesheet          vm_actor
     0004658C  _vm_actor_replace_tile             vm_actor
     000465F7  _vm_actor_set_anim_tick            vm_actor
     00046635  _vm_actor_set_move_speed           vm_actor
     00046673  _vm_actor_set_anim_frame           vm_actor
     000466B7  _vm_actor_get_anim_frame           vm_actor
     00046701  _vm_actor_set_anim_set             vm_actor
     00046789  _vm_actor_set_spritesheet_by_ref   vm_actor
     00046896  _vm_actor_set_flags                vm_actor
     00046944  ___func_VM_RTC                     vm_rtc
     00046944  _vm_rtc_latch                      vm_rtc
     0004694C  _vm_rtc_get                        vm_rtc
     000469B3  _vm_rtc_set                        vm_rtc
     00046A11  _vm_rtc_start                      vm_rtc
ASxxxx Linker V03.00/V05.40 + sdld,  page 54.
Hexadecimal  [32-Bits]

Area                                    Addr        Size        Decimal Bytes (Attributes)
--------------------------------        ----        ----        ------- ----- ------------
_CODE_4                             00044000    00004000 =       16384. bytes (REL,CON)

      Value  Global                              Global Defined In Module
      -----  --------------------------------   ------------------------
     00047FE3  _song_once_upon_a_time_Data        song_once_upon_a_time_Data
     00047FF8  ___func_scene_room_09_triggers     scene_room_09_triggers
     00047FF8  _scene_room_09_triggers            scene_room_09_triggers

ASxxxx Linker V03.00/V05.40 + sdld,  page 55.
Hexadecimal  [32-Bits]

Area                                    Addr        Size        Decimal Bytes (Attributes)
--------------------------------        ----        ----        ------- ----- ------------
_CODE_20                            00144000    000022B1 =        8881. bytes (REL,CON)

      Value  Global                              Global Defined In Module
      -----  --------------------------------   ------------------------
     00144000  _bootstrap_script                  
     0014400B  _camera_init                       camera
     00144029  _camera_reset                      camera
     00144039  _input_init                        input
     0014405F  _remove_LCD_ISRs                   interrupts
     0014407A  _parallax_init                     parallax
     0014409A  _scroll_rect                       
     001440D7  _SIO_init                          sio
     00144100  _actor_15_interact                 actor_15_interact
     0014413B  _actor_18_interact                 actor_18_interact
     0014416B  _actor_29_interact                 actor_29_interact
     001441AB  _actor_4_update                    actor_4_update
     001441D8  ___func_bg_battle1_test            bg_battle1_test
     001441D8  _bg_battle1_test                   bg_battle1_test
     001441E6  ___func_bg_battle2_test            bg_battle2_test
     001441E6  _bg_battle2_test                   bg_battle2_test
     001441F4  ___func_bg_debug_flowey_battle     bg_debug_flowey_battle
     001441F4  _bg_debug_flowey_battle            bg_debug_flowey_battle
     00144202  ___func_bg_gameover                bg_gameover
     00144202  _bg_gameover                       bg_gameover
     00144210  ___func_bg_intro01                 bg_intro01
     00144210  _bg_intro01                        bg_intro01
     0014421E  ___func_bg_intro02                 bg_intro02
     0014421E  _bg_intro02                        bg_intro02
     0014422C  ___func_bg_intro03                 bg_intro03
     0014422C  _bg_intro03                        bg_intro03
     0014423A  ___func_bg_intro04                 bg_intro04
     0014423A  _bg_intro04                        bg_intro04
     00144248  ___func_bg_intro05                 bg_intro05
     00144248  _bg_intro05                        bg_intro05
     00144256  ___func_bg_intro06                 bg_intro06
     00144256  _bg_intro06                        bg_intro06
     00144264  ___func_bg_intro07                 bg_intro07
     00144264  _bg_intro07                        bg_intro07
     00144272  ___func_bg_introtemplate_tileset   bg_introtemplate_tileset
     00144272  _bg_introtemplate_tileset          bg_introtemplate_tileset
     00144294  ___func_bg_introtemplate           bg_introtemplate
     00144294  _bg_introtemplate                  bg_introtemplate
     001442A2  ___func_bg_loadmenu                bg_loadmenu
     001442A2  _bg_loadmenu                       bg_loadmenu
     001442B0  ___func_bg_logo                    bg_logo
     001442B0  _bg_logo                           bg_logo
     001442BE  ___func_bg_misc                    bg_misc
     001442BE  _bg_misc                           bg_misc
     001442CC  ___func_bg_room01                  bg_room01
     001442CC  _bg_room01                         bg_room01
     001442DA  ___func_bg_room02                  bg_room02
     001442DA  _bg_room02                         bg_room02
     001442E8  ___func_bg_room03                  bg_room03
     001442E8  _bg_room03                         bg_room03
ASxxxx Linker V03.00/V05.40 + sdld,  page 56.
Hexadecimal  [32-Bits]

Area                                    Addr        Size        Decimal Bytes (Attributes)
--------------------------------        ----        ----        ------- ----- ------------
_CODE_20                            00144000    000022B1 =        8881. bytes (REL,CON)

      Value  Global                              Global Defined In Module
      -----  --------------------------------   ------------------------
     001442F6  ___func_bg_room04                  bg_room04
     001442F6  _bg_room04                         bg_room04
     00144304  ___func_bg_room05                  bg_room05
     00144304  _bg_room05                         bg_room05
     00144312  ___func_bg_room06                  bg_room06
     00144312  _bg_room06                         bg_room06
     00144320  ___func_bg_room07                  bg_room07
     00144320  _bg_room07                         bg_room07
     0014432E  ___func_bg_room08                  bg_room08
     0014432E  _bg_room08                         bg_room08
     0014433C  ___func_bg_room09                  bg_room09
     0014433C  _bg_room09                         bg_room09
     0014434A  ___func_bg_room10                  bg_room10
     0014434A  _bg_room10                         bg_room10
     00144358  ___func_bg_room11                  bg_room11
     00144358  _bg_room11                         bg_room11
     00144366  ___func_bg_room12                  bg_room12
     00144366  _bg_room12                         bg_room12
     00144374  ___func_bg_room13                  bg_room13
     00144374  _bg_room13                         bg_room13
     00144382  ___func_bg_room14                  bg_room14
     00144382  _bg_room14                         bg_room14
     00144390  ___func_bg_room15                  bg_room15
     00144390  _bg_room15                         bg_room15
     0014439E  ___func_bg_room16                  bg_room16
     0014439E  _bg_room16                         bg_room16
     001443AC  ___func_bg_room17                  bg_room17
     001443AC  _bg_room17                         bg_room17
     001443BA  ___func_bg_room18                  bg_room18
     001443BA  _bg_room18                         bg_room18
     001443C8  ___func_bg_room19                  bg_room19
     001443C8  _bg_room19                         bg_room19
     001443D6  ___func_bg_room20                  bg_room20
     001443D6  _bg_room20                         bg_room20
     001443E4  ___func_bg_room21                  bg_room21
     001443E4  _bg_room21                         bg_room21
     001443F2  ___func_bg_room22                  bg_room22
     001443F2  _bg_room22                         bg_room22
     00144400  ___func_bg_room23                  bg_room23
     00144400  _bg_room23                         bg_room23
     0014440E  ___func_bg_room24                  bg_room24
     0014440E  _bg_room24                         bg_room24
     0014441C  ___func_bg_room25                  bg_room25
     0014441C  _bg_room25                         bg_room25
     0014442A  ___func_bg_water                   bg_water
     0014442A  _bg_water                          bg_water
     00144438  ___func_palette_2                  palette_2
     00144438  _palette_2                         palette_2
     0014447B  ___func_palette_20                 palette_20
     0014447B  _palette_20                        palette_20
     001444BE  ___func_palette_21                 palette_21
ASxxxx Linker V03.00/V05.40 + sdld,  page 57.
Hexadecimal  [32-Bits]

Area                                    Addr        Size        Decimal Bytes (Attributes)
--------------------------------        ----        ----        ------- ----- ------------
_CODE_20                            00144000    000022B1 =        8881. bytes (REL,CON)

      Value  Global                              Global Defined In Module
      -----  --------------------------------   ------------------------
     001444BE  _palette_21                        palette_21
     00144501  ___func_palette_22                 palette_22
     00144501  _palette_22                        palette_22
     00144544  ___func_palette_23                 palette_23
     00144544  _palette_23                        palette_23
     00144587  ___func_palette_24                 palette_24
     00144587  _palette_24                        palette_24
     001445CA  ___func_palette_25                 palette_25
     001445CA  _palette_25                        palette_25
     0014460D  ___func_palette_26                 palette_26
     0014460D  _palette_26                        palette_26
     00144650  ___func_palette_27                 palette_27
     00144650  _palette_27                        palette_27
     00144693  ___func_palette_3                  palette_3
     00144693  _palette_3                         palette_3
     001446D6  ___func_palette_4                  palette_4
     001446D6  _palette_4                         palette_4
     00144719  ___func_palette_5                  palette_5
     00144719  _palette_5                         palette_5
     0014475C  ___func_palette_6                  palette_6
     0014475C  _palette_6                         palette_6
     0014479F  ___func_palette_7                  palette_7
     0014479F  _palette_7                         palette_7
     001447E2  ___func_palette_8                  palette_8
     001447E2  _palette_8                         palette_8
     00144825  ___func_palette_9                  palette_9
     00144825  _palette_9                         palette_9
     00144868  _scene_0_init                      scene_0_init
     00144890  ___func_scene_0_projectiles        scene_0_projectiles
     00144890  _scene_0_projectiles               scene_0_projectiles
     001448A7  ___func_scene_0                    scene_0
     001448A7  _scene_0                           scene_0
     001448E2  _scene_40_init                     scene_40_init
     001448F8  ___func_scene_40                   scene_40
     001448F8  _scene_40                          scene_40
     00144933  _scene_41_init                     scene_41_init
     00144949  ___func_scene_41                   scene_41
     00144949  _scene_41                          scene_41
     00144984  ___func_scene_battle_test_1        scene_battle_test_1
     00144984  _scene_battle_test_1               scene_battle_test_1
     001449BF  ___func_scene_battle_test_2_proj   scene_battle_test_2_projecti
     001449BF  _scene_battle_test_2_projectiles   scene_battle_test_2_projecti
     001449D6  ___func_scene_battle_test_2_spri   scene_battle_test_2_sprites
     001449D6  _scene_battle_test_2_sprites       scene_battle_test_2_sprites
     001449DF  ___func_scene_battle_test_2        scene_battle_test_2
     001449DF  _scene_battle_test_2               scene_battle_test_2
     00144A1A  ___func_scene_debug                scene_debug
     00144A1A  _scene_debug                       scene_debug
     00144A55  ___func_scene_gameover             scene_gameover
     00144A55  _scene_gameover                    scene_gameover
     00144A90  ___func_scene_intro_01             scene_intro_01
ASxxxx Linker V03.00/V05.40 + sdld,  page 58.
Hexadecimal  [32-Bits]

Area                                    Addr        Size        Decimal Bytes (Attributes)
--------------------------------        ----        ----        ------- ----- ------------
_CODE_20                            00144000    000022B1 =        8881. bytes (REL,CON)

      Value  Global                              Global Defined In Module
      -----  --------------------------------   ------------------------
     00144A90  _scene_intro_01                    scene_intro_01
     00144ACB  ___func_scene_intro_02             scene_intro_02
     00144ACB  _scene_intro_02                    scene_intro_02
     00144B06  ___func_scene_intro_03             scene_intro_03
     00144B06  _scene_intro_03                    scene_intro_03
     00144B41  ___func_scene_intro_04             scene_intro_04
     00144B41  _scene_intro_04                    scene_intro_04
     00144B7C  ___func_scene_intro_05             scene_intro_05
     00144B7C  _scene_intro_05                    scene_intro_05
     00144BB7  ___func_scene_intro_06             scene_intro_06
     00144BB7  _scene_intro_06                    scene_intro_06
     00144BF2  ___func_scene_intro_07             scene_intro_07
     00144BF2  _scene_intro_07                    scene_intro_07
     00144C2D  ___func_scene_logo                 scene_logo
     00144C2D  _scene_logo                        scene_logo
     00144C68  ___func_scene_menu_1               scene_menu_1
     00144C68  _scene_menu_1                      scene_menu_1
     00144CA3  _scene_room_01_init                scene_room_01_init
     00144CE0  ___func_scene_room_01_triggers     scene_room_01_triggers
     00144CE0  _scene_room_01_triggers            scene_room_01_triggers
     00144CF0  ___func_scene_room_01              scene_room_01
     00144CF0  _scene_room_01                     scene_room_01
     00144D2B  ___func_scene_room_02_actors       scene_room_02_actors
     00144D2B  _scene_room_02_actors              scene_room_02_actors
     00144D5F  _scene_room_02_init                scene_room_02_init
     00144D7E  ___func_scene_room_02_triggers     scene_room_02_triggers
     00144D7E  _scene_room_02_triggers            scene_room_02_triggers
     00144D96  ___func_scene_room_02              scene_room_02
     00144D96  _scene_room_02                     scene_room_02
     00144DD1  ___func_scene_room_03_actors       scene_room_03_actors
     00144DD1  _scene_room_03_actors              scene_room_03_actors
     00144E05  _scene_room_03_init                scene_room_03_init
     00144E33  ___func_scene_room_03_triggers     scene_room_03_triggers
     00144E33  _scene_room_03_triggers            scene_room_03_triggers
     00144E43  ___func_scene_room_03              scene_room_03
     00144E43  _scene_room_03                     scene_room_03
     00144E7E  ___func_scene_room_04_triggers     scene_room_04_triggers
     00144E7E  _scene_room_04_triggers            scene_room_04_triggers
     00144EBE  ___func_scene_room_04              scene_room_04
     00144EBE  _scene_room_04                     scene_room_04
     00144EF9  ___func_scene_room_05_sprites      scene_room_05_sprites
     00144EF9  _scene_room_05_sprites             scene_room_05_sprites
     00144F05  ___func_scene_room_05_triggers     scene_room_05_triggers
     00144F05  _scene_room_05_triggers            scene_room_05_triggers
     00144F15  ___func_scene_room_05              scene_room_05
     00144F15  _scene_room_05                     scene_room_05
     00144F50  ___func_scene_room_06_actors       scene_room_06_actors
     00144F50  _scene_room_06_actors              scene_room_06_actors
     00144F84  _scene_room_06_init                scene_room_06_init
     00144F9E  ___func_scene_room_06_triggers     scene_room_06_triggers
     00144F9E  _scene_room_06_triggers            scene_room_06_triggers
ASxxxx Linker V03.00/V05.40 + sdld,  page 59.
Hexadecimal  [32-Bits]

Area                                    Addr        Size        Decimal Bytes (Attributes)
--------------------------------        ----        ----        ------- ----- ------------
_CODE_20                            00144000    000022B1 =        8881. bytes (REL,CON)

      Value  Global                              Global Defined In Module
      -----  --------------------------------   ------------------------
     00144FAE  ___func_scene_room_06              scene_room_06
     00144FAE  _scene_room_06                     scene_room_06
     00144FE9  ___func_scene_room_07              scene_room_07
     00144FE9  _scene_room_07                     scene_room_07
     00145024  _scene_room_08_init                scene_room_08_init
     0014503E  ___func_scene_room_08_triggers     scene_room_08_triggers
     0014503E  _scene_room_08_triggers            scene_room_08_triggers
     0014504E  ___func_scene_room_08              scene_room_08
     0014504E  _scene_room_08                     scene_room_08
     00145089  _scene_room_09_init                scene_room_09_init
     001450A3  ___func_scene_room_09              scene_room_09
     001450A3  _scene_room_09                     scene_room_09
     001450DE  _scene_room_10_init                scene_room_10_init
     001450F8  ___func_scene_room_10_sprites      scene_room_10_sprites
     001450F8  _scene_room_10_sprites             scene_room_10_sprites
     001450FE  ___func_scene_room_10_triggers     scene_room_10_triggers
     001450FE  _scene_room_10_triggers            scene_room_10_triggers
     00145116  ___func_scene_room_10              scene_room_10
     00145116  _scene_room_10                     scene_room_10
     00145151  _scene_room_11_init                scene_room_11_init
     0014516B  ___func_scene_room_11_triggers     scene_room_11_triggers
     0014516B  _scene_room_11_triggers            scene_room_11_triggers
     00145193  ___func_scene_room_11              scene_room_11
     00145193  _scene_room_11                     scene_room_11
     001451CE  ___func_scene_room_12_sprites      scene_room_12_sprites
     001451CE  _scene_room_12_sprites             scene_room_12_sprites
     001451D7  ___func_scene_room_12_triggers     scene_room_12_triggers
     001451D7  _scene_room_12_triggers            scene_room_12_triggers
     001451E7  ___func_scene_room_12              scene_room_12
     001451E7  _scene_room_12                     scene_room_12
     00145222  _scene_room_13_init                scene_room_13_init
     0014523C  ___func_scene_room_13_sprites      scene_room_13_sprites
     0014523C  _scene_room_13_sprites             scene_room_13_sprites
     0014523F  ___func_scene_room_13_triggers     scene_room_13_triggers
     0014523F  _scene_room_13_triggers            scene_room_13_triggers
     0014527F  ___func_scene_room_13              scene_room_13
     0014527F  _scene_room_13                     scene_room_13
     001452BA  ___func_scene_room_14_sprites      scene_room_14_sprites
     001452BA  _scene_room_14_sprites             scene_room_14_sprites
     001452C3  ___func_scene_room_14_triggers     scene_room_14_triggers
     001452C3  _scene_room_14_triggers            scene_room_14_triggers
     001452D3  ___func_scene_room_14              scene_room_14
     001452D3  _scene_room_14                     scene_room_14
     0014530E  _scene_room_15_init                scene_room_15_init
     00145328  ___func_scene_room_15_triggers     scene_room_15_triggers
     00145328  _scene_room_15_triggers            scene_room_15_triggers
     00145338  ___func_scene_room_15              scene_room_15
     00145338  _scene_room_15                     scene_room_15
     00145373  ___func_scene_room_16_actors       scene_room_16_actors
     00145373  _scene_room_16_actors              scene_room_16_actors
     001453A7  _scene_room_16_init                scene_room_16_init
ASxxxx Linker V03.00/V05.40 + sdld,  page 60.
Hexadecimal  [32-Bits]

Area                                    Addr        Size        Decimal Bytes (Attributes)
--------------------------------        ----        ----        ------- ----- ------------
_CODE_20                            00144000    000022B1 =        8881. bytes (REL,CON)

      Value  Global                              Global Defined In Module
      -----  --------------------------------   ------------------------
     001453BD  ___func_scene_room_16_sprites      scene_room_16_sprites
     001453BD  _scene_room_16_sprites             scene_room_16_sprites
     001453C0  ___func_scene_room_16_triggers     scene_room_16_triggers
     001453C0  _scene_room_16_triggers            scene_room_16_triggers
     001453D8  ___func_scene_room_16              scene_room_16
     001453D8  _scene_room_16                     scene_room_16
     00145413  _scene_room_17_init                scene_room_17_init
     00145429  ___func_scene_room_17_triggers     scene_room_17_triggers
     00145429  _scene_room_17_triggers            scene_room_17_triggers
     00145431  ___func_scene_room_17              scene_room_17
     00145431  _scene_room_17                     scene_room_17
     0014546C  _scene_room_18_init                scene_room_18_init
     00145482  ___func_scene_room_18_triggers     scene_room_18_triggers
     00145482  _scene_room_18_triggers            scene_room_18_triggers
     00145492  ___func_scene_room_18              scene_room_18
     00145492  _scene_room_18                     scene_room_18
     001454CD  _scene_room_19_init                scene_room_19_init
     001454E3  ___func_scene_room_19_triggers     scene_room_19_triggers
     001454E3  _scene_room_19_triggers            scene_room_19_triggers
     001454EB  ___func_scene_room_19              scene_room_19
     001454EB  _scene_room_19                     scene_room_19
     00145526  _scene_room_20_init                scene_room_20_init
     0014553C  ___func_scene_room_20              scene_room_20
     0014553C  _scene_room_20                     scene_room_20
     00145577  _scene_room_21_init                scene_room_21_init
     0014558D  ___func_scene_room_21              scene_room_21
     0014558D  _scene_room_21                     scene_room_21
     001455C8  _scene_room_22_init                scene_room_22_init
     001455DE  ___func_scene_room_22              scene_room_22
     001455DE  _scene_room_22                     scene_room_22
     00145619  _scene_room_23_init                scene_room_23_init
     0014562F  ___func_scene_room_23              scene_room_23
     0014562F  _scene_room_23                     scene_room_23
     0014566A  _scene_room_24_init                scene_room_24_init
     00145680  ___func_scene_room_24              scene_room_24
     00145680  _scene_room_24                     scene_room_24
     001456BB  _scene_room_25_init                scene_room_25_init
     001456D1  ___func_scene_room_25              scene_room_25
     001456D1  _scene_room_25                     scene_room_25
     0014570C  _script_8                          script_8
     00145727  _script_enter_battle               script_enter_battle
     00145741  _script_input_4                    script_input_4
     0014576E  _script_input_5                    script_input_5
     0014579B  ___func_sprite_battlecursor_tile   sprite_battlecursor_tileset
     0014579B  _sprite_battlecursor_tileset       sprite_battlecursor_tileset
     001457BD  ___func_sprite_battlecursor        sprite_battlecursor
     001457BD  _sprite_battlecursor_metasprite_   sprite_battlecursor
     001457C9  _sprite_battlecursor_metasprites   sprite_battlecursor
     001457CB  _sprite_battlecursor_animations    sprite_battlecursor
     001457DB  _sprite_battlecursor_animations_   sprite_battlecursor
     001457DD  _sprite_battlecursor               sprite_battlecursor
ASxxxx Linker V03.00/V05.40 + sdld,  page 61.
Hexadecimal  [32-Bits]

Area                                    Addr        Size        Decimal Bytes (Attributes)
--------------------------------        ----        ----        ------- ----- ------------
_CODE_20                            00144000    000022B1 =        8881. bytes (REL,CON)

      Value  Global                              Global Defined In Module
      -----  --------------------------------   ------------------------
     001457F0  ___func_sprite_blooky              sprite_blooky
     001457F0  _sprite_blooky_metasprite_0        sprite_blooky
     00145804  _sprite_blooky_metasprites         sprite_blooky
     00145806  _sprite_blooky_animations          sprite_blooky
     00145816  _sprite_blooky_animations_lookup   sprite_blooky
     00145818  _sprite_blooky                     sprite_blooky
     0014582B  ___func_sprite_dummy               sprite_dummy
     0014582B  _sprite_dummy_metasprite_0         sprite_dummy
     0014583F  _sprite_dummy_metasprites          sprite_dummy
     00145841  _sprite_dummy_animations           sprite_dummy
     00145851  _sprite_dummy_animations_lookup    sprite_dummy
     00145853  _sprite_dummy                      sprite_dummy
     00145866  ___func_sprite_empty_tileset       sprite_empty_tileset
     00145866  _sprite_empty_tileset              sprite_empty_tileset
     00145869  ___func_sprite_empty               sprite_empty
     00145869  _sprite_empty_metasprite_0         sprite_empty
     0014586D  _sprite_empty_metasprites          sprite_empty
     0014586F  _sprite_empty_animations           sprite_empty
     0014587F  _sprite_empty_animations_lookup    sprite_empty
     00145881  _sprite_empty                      sprite_empty
     00145894  ___func_sprite_flowey_tileset      sprite_flowey_tileset
     00145894  _sprite_flowey_tileset             sprite_flowey_tileset
     001458D6  ___func_sprite_flowey              sprite_flowey
     001458D6  _sprite_flowey_metasprite_0        sprite_flowey
     001458E2  _sprite_flowey_metasprites         sprite_flowey
     001458E4  _sprite_flowey_animations          sprite_flowey
     001458F4  _sprite_flowey_animations_lookup   sprite_flowey
     001458F6  _sprite_flowey                     sprite_flowey
     00145909  ___func_sprite_floweybullet_tile   sprite_floweybullet_tileset
     00145909  _sprite_floweybullet_tileset       sprite_floweybullet_tileset
     0014594B  ___func_sprite_froggit_overworld   sprite_froggit_overworld_
     0014594B  _sprite_froggit_overworld__metas   sprite_froggit_overworld_
     00145957  _sprite_froggit_overworld__metas   sprite_froggit_overworld_
     00145963  _sprite_froggit_overworld__metas   sprite_froggit_overworld_
     00145967  _sprite_froggit_overworld__anima   sprite_froggit_overworld_
     00145977  _sprite_froggit_overworld__anima   sprite_froggit_overworld_
     00145979  _sprite_froggit_overworld_         sprite_froggit_overworld_
     0014598C  ___func_sprite_heart_tileset       sprite_heart_tileset
     0014598C  _sprite_heart_tileset              sprite_heart_tileset
     001459AE  ___func_sprite_heart               sprite_heart
     001459AE  _sprite_heart_metasprite_0         sprite_heart
     001459B6  _sprite_heart_metasprites          sprite_heart
     001459B8  _sprite_heart_animations           sprite_heart
     001459C8  _sprite_heart_animations_lookup    sprite_heart
     001459CA  _sprite_heart                      sprite_heart
     001459DD  ___func_sprite_rock_tileset        sprite_rock_tileset
     001459DD  _sprite_rock_tileset               sprite_rock_tileset
     00145A1F  ___func_sprite_rock                sprite_rock
     00145A1F  _sprite_rock_metasprite_0          sprite_rock
     00145A2B  _sprite_rock_metasprites           sprite_rock
     00145A2D  _sprite_rock_animations            sprite_rock
ASxxxx Linker V03.00/V05.40 + sdld,  page 62.
Hexadecimal  [32-Bits]

Area                                    Addr        Size        Decimal Bytes (Attributes)
--------------------------------        ----        ----        ------- ----- ------------
_CODE_20                            00144000    000022B1 =        8881. bytes (REL,CON)

      Value  Global                              Global Defined In Module
      -----  --------------------------------   ------------------------
     00145A3D  _sprite_rock_animations_lookup     sprite_rock
     00145A3F  _sprite_rock                       sprite_rock
     00145A52  ___func_sprite_sign_tileset        sprite_sign_tileset
     00145A52  _sprite_sign_tileset               sprite_sign_tileset
     00145A94  ___func_sprite_sign                sprite_sign
     00145A94  _sprite_sign_metasprite_0          sprite_sign
     00145AA0  _sprite_sign_metasprites           sprite_sign
     00145AA2  _sprite_sign_animations            sprite_sign
     00145AB2  _sprite_sign_animations_lookup     sprite_sign
     00145AB4  _sprite_sign                       sprite_sign
     00145AC7  ___func_sprite_spikes_tileset      sprite_spikes_tileset
     00145AC7  _sprite_spikes_tileset             sprite_spikes_tileset
     00145AE9  ___func_sprite_spikes              sprite_spikes
     00145AE9  _sprite_spikes_metasprite_0        sprite_spikes
     00145AF5  _sprite_spikes_metasprites         sprite_spikes
     00145AF7  _sprite_spikes_animations          sprite_spikes
     00145B07  _sprite_spikes_animations_lookup   sprite_spikes
     00145B09  _sprite_spikes                     sprite_spikes
     00145B1C  ___func_sprite_wallswitch_tilese   sprite_wallswitch_tileset
     00145B1C  _sprite_wallswitch_tileset         sprite_wallswitch_tileset
     00145B5E  _spritesheet_none_metasprite       spritesheet_none
     00145B62  _spritesheet_none_metasprites      spritesheet_none
     00145B64  _spritesheet_none                  spritesheet_none
     00145B77  _trigger_0_interact                trigger_0_interact
     00145B9D  _trigger_1_interact                trigger_1_interact
     00145BCE  _trigger_10_interact               trigger_10_interact
     00145BF4  _trigger_11_interact               trigger_11_interact
     00145C1A  _trigger_12_interact               trigger_12_interact
     00145C40  _trigger_13_interact               trigger_13_interact
     00145C66  _trigger_14_interact               trigger_14_interact
     00145C8C  _trigger_15_interact               trigger_15_interact
     00145CB2  _trigger_16_interact               trigger_16_interact
     00145CD8  _trigger_17_interact               trigger_17_interact
     00145CFE  _trigger_18_interact               trigger_18_interact
     00145D24  _trigger_19_interact               trigger_19_interact
     00145D4A  _trigger_2_interact                trigger_2_interact
     00145D70  _trigger_20_interact               trigger_20_interact
     00145D96  _trigger_21_interact               trigger_21_interact
     00145DBC  _trigger_22_interact               trigger_22_interact
     00145DE2  _trigger_23_interact               trigger_23_interact
     00145E08  _trigger_24_interact               trigger_24_interact
     00145E2E  _trigger_25_interact               trigger_25_interact
     00145E54  _trigger_26_interact               trigger_26_interact
     00145E7A  _trigger_27_interact               trigger_27_interact
     00145EA0  _trigger_28_interact               trigger_28_interact
     00145EC6  _trigger_29_interact               trigger_29_interact
     00145EEC  _trigger_3_interact                trigger_3_interact
     00145F12  _trigger_30_interact               trigger_30_interact
     00145F38  _trigger_31_interact               trigger_31_interact
     00145F5E  _trigger_32_interact               trigger_32_interact
     00145F84  _trigger_33_interact               trigger_33_interact
ASxxxx Linker V03.00/V05.40 + sdld,  page 63.
Hexadecimal  [32-Bits]

Area                                    Addr        Size        Decimal Bytes (Attributes)
--------------------------------        ----        ----        ------- ----- ------------
_CODE_20                            00144000    000022B1 =        8881. bytes (REL,CON)

      Value  Global                              Global Defined In Module
      -----  --------------------------------   ------------------------
     00145FAA  _trigger_34_interact               trigger_34_interact
     00145FD0  _trigger_35_interact               trigger_35_interact
     00145FF6  _trigger_36_interact               trigger_36_interact
     0014601C  _trigger_39_interact               trigger_39_interact
     00146052  _trigger_4_interact                trigger_4_interact
     00146078  _trigger_40_interact               trigger_40_interact
     001460AE  _trigger_41_interact               trigger_41_interact
     001460E4  _trigger_42_interact               trigger_42_interact
     0014611A  _trigger_43_interact               trigger_43_interact
     00146150  _trigger_5_interact                trigger_5_interact
     00146176  _trigger_6_interact                trigger_6_interact
     0014619C  _trigger_68_interact               trigger_68_interact
     001461D2  _trigger_7_interact                trigger_7_interact
     001461F8  _trigger_79_interact               trigger_79_interact
     0014622E  _trigger_8_interact                trigger_8_interact
     00146254  _trigger_9_interact                trigger_9_interact
     0014627A  _deab_overlay_tile_set             SetOverlayID
     001462A0  _logo_init                         logo
     001462B0  _logo_update                       logo
ASxxxx Linker V03.00/V05.40 + sdld,  page 64.
Hexadecimal  [32-Bits]

Area                                    Addr        Size        Decimal Bytes (Attributes)
--------------------------------        ----        ----        ------- ----- ------------
_CODE_15                            000F4000    00004000 =       16384. bytes (REL,CON)

      Value  Global                              Global Defined In Module
      -----  --------------------------------   ------------------------
     000F4000  _core_reset                        core
     000F4075  _process_VM                        core
     000F42F7  _core_run                          core
     000F43D3  ___HandleCrash_banked              
     000F473B  _data_init                         load_save
     000F4786  _save_points                       load_save
     000F47E6  _data_slot_address                 load_save
     000F485E  _data_save                         load_save
     000F491F  _data_load                         load_save
     000F4A33  _data_clear                        load_save
     000F4A60  _data_peek                         load_save
     000F4B01  _trigger_reset                     trigger
     000F4B11  _trigger_interact                  trigger
     000F4B50  _trigger_activate_at               trigger
     000F4B9B  _trigger_at_intersection           trigger
     000F4CC2  _trigger_activate_at_intersectio   trigger
     000F4E03  _trigger_at_tile                   trigger
     000F4E94  ___func_bg_battle2_test_tileset    bg_battle2_test_tileset
     000F4E94  _bg_battle2_test_tileset           bg_battle2_test_tileset
     000F51F6  ___func_bg_intro06_tileset         bg_intro06_tileset
     000F51F6  _bg_intro06_tileset                bg_intro06_tileset
     000F5618  ___func_bg_room02_tilemap_attr     bg_room02_tilemap_attr
     000F5618  _bg_room02_tilemap_attr            bg_room02_tilemap_attr
     000F5A58  ___func_bg_room02_tilemap          bg_room02_tilemap
     000F5A58  _bg_room02_tilemap                 bg_room02_tilemap
     000F5E98  ___func_bg_room04_tileset          bg_room04_tileset
     000F5E98  _bg_room04_tileset                 bg_room04_tileset
     000F621A  ___func_bg_room05_tileset          bg_room05_tileset
     000F621A  _bg_room05_tileset                 bg_room05_tileset
     000F65EC  ___func_bg_room08_tileset          bg_room08_tileset
     000F65EC  _bg_room08_tileset                 bg_room08_tileset
     000F69DE  ___func_bg_room10_tileset          bg_room10_tileset
     000F69DE  _bg_room10_tileset                 bg_room10_tileset
     000F6DD0  ___func_bg_room21_tileset          bg_room21_tileset
     000F6DD0  _bg_room21_tileset                 bg_room21_tileset
     000F7142  ___func_bg_room23_tileset          bg_room23_tileset
     000F7142  _bg_room23_tileset                 bg_room23_tileset
     000F74B4  ___func_bg_room24_tileset          bg_room24_tileset
     000F74B4  _bg_room24_tileset                 bg_room24_tileset
     000F7846  ___func_scene_room_02_collisions   scene_room_02_collisions
     000F7846  _scene_room_02_collisions          scene_room_02_collisions
     000F7C86  ___func_scene_room_09_sprites      scene_room_09_sprites
     000F7C86  _scene_room_09_sprites             scene_room_09_sprites
     000F7C8C  _pointnclick_init                  pointnclick
     000F7CC5  _pointnclick_update                pointnclick
ASxxxx Linker V03.00/V05.40 + sdld,  page 65.
Hexadecimal  [32-Bits]

Area                                    Addr        Size        Decimal Bytes (Attributes)
--------------------------------        ----        ----        ------- ----- ------------
_CRASH_HEADER0                      00000000    00000005 =           5. bytes (ABS,CON)

      Value  Global                              Global Defined In Module
      -----  --------------------------------   ------------------------
ASxxxx Linker V03.00/V05.40 + sdld,  page 66.
Hexadecimal  [32-Bits]

Area                                    Addr        Size        Decimal Bytes (Attributes)
--------------------------------        ----        ----        ------- ----- ------------
_CRASH_HEADER1                      00000000    00000004 =           4. bytes (ABS,CON)

      Value  Global                              Global Defined In Module
      -----  --------------------------------   ------------------------
ASxxxx Linker V03.00/V05.40 + sdld,  page 67.
Hexadecimal  [32-Bits]

Area                                    Addr        Size        Decimal Bytes (Attributes)
--------------------------------        ----        ----        ------- ----- ------------
_CRASH_SCRATCH2                     00000000    000001CB =         459. bytes (ABS,CON)

      Value  Global                              Global Defined In Module
      -----  --------------------------------   ------------------------
ASxxxx Linker V03.00/V05.40 + sdld,  page 68.
Hexadecimal  [32-Bits]

Area                                    Addr        Size        Decimal Bytes (Attributes)
--------------------------------        ----        ----        ------- ----- ------------
_CODE_9                             00094000    00004000 =       16384. bytes (REL,CON)

      Value  Global                              Global Defined In Module
      -----  --------------------------------   ------------------------
     00094000  _load_init                         data_manager
     00094013  _spritesheet_none_far              data_manager
     00094016  _load_bkg_tileset                  data_manager
     000940F3  _load_background                   data_manager
     000941B9  _load_sprite                       data_manager
     0009428F  _load_bounds                       data_manager
     000942AC  _do_load_palette                   data_manager
     00094331  _load_scene                        data_manager
     00094996  _load_player                       data_manager
     000949DF  _load_emote                        data_manager
     000949F8  ___func_bg_intro04_tileset         bg_intro04_tileset
     000949F8  _bg_intro04_tileset                bg_intro04_tileset
     0009532A  ___func_bg_intro07_tileset         bg_intro07_tileset
     0009532A  _bg_intro07_tileset                bg_intro07_tileset
     00095C0C  ___func_bg_room25_tilemap_attr     bg_room25_tilemap_attr
     00095C0C  _bg_room25_tilemap_attr            bg_room25_tilemap_attr
     0009656C  ___func_bg_room25_tilemap          bg_room25_tilemap
     0009656C  _bg_room25_tilemap                 bg_room25_tilemap
     00096ECC  ___func_scene_0_sprites            scene_0_sprites
     00096ECC  _scene_0_sprites                   scene_0_sprites
     00096ED8  ___func_scene_room_25_collisions   scene_room_25_collisions
     00096ED8  _scene_room_25_collisions          scene_room_25_collisions
     00097838  _shmup_init                        shmup
     000978D5  _shmup_update                      shmup
ASxxxx Linker V03.00/V05.40 + sdld,  page 69.
Hexadecimal  [32-Bits]

Area                                    Addr        Size        Decimal Bytes (Attributes)
--------------------------------        ----        ----        ------- ----- ------------
_CODE_19                            00134000    00003FFF =       16383. bytes (REL,CON)

      Value  Global                              Global Defined In Module
      -----  --------------------------------   ------------------------
     00134000  _events_init                       events
     00134040  _timers_init                       events
     001340E8  _save_sram_banks                   
     00134170  _erase_flash                       
     00134186  _restore_sram_bank                 flasher
     001341BC  _restore_sram                      flasher
     001341D2  _save_sram                         flasher
     001341FE  _music_init_driver                 music_manager
     0013425A  _music_init_events                 music_manager
     00134296  _music_events_poll                 music_manager
     001342BE  _music_pause                       music_manager
     001342E0  _palette_init                      palette
     00134317  _CGBZeroPalette                    palette
     0013432C  ___func_VM_GBPRINTER               vm_gbprinter
     0013432C  _vm_print_detect                   vm_gbprinter
     0013437B  _vm_print_overlay                  vm_gbprinter
     001343D0  ___func_VM_LOAD_SAVE               vm_load_save
     001343D0  _vm_save_clear                     vm_load_save
     001343DF  _vm_save_peek                      vm_load_save
     00134461  ___func_VM_MATH                    vm_math
     00134461  _vm_sin_scale                      vm_math
     001344FD  _vm_cos_scale                      vm_math
     0013459B  ___func_VM_PROJECTILE              vm_projectiles
     0013459B  _vm_projectile_launch              vm_projectiles
     001345DC  _vm_projectile_load_type           vm_projectiles
     0013466E  ___func_VM_SCENE                   vm_scene
     0013466E  _vm_scene_push                     vm_scene
     001346E4  _vm_scene_pop                      vm_scene
     001346F2  _vm_scene_pop_all                  vm_scene
     001346FD  _vm_scene_stack_reset              vm_scene
     00134706  _itoa_fmt                          vm_ui_a
     0013473F  .utoa_fmt                          vm_ui_a
     001347E9  _actor_10_interact                 actor_10_interact
     00134845  _actor_16_interact                 actor_16_interact
     0013488A  _actor_17_interact                 actor_17_interact
     001348D3  _actor_19_interact                 actor_19_interact
     0013496C  _actor_2_update                    actor_2_update
     00134A3F  _actor_22_update                   actor_22_update
     00134B77  _actor_25_interact                 actor_25_interact
     00134BC8  _actor_26_interact                 actor_26_interact
     00134C19  _actor_27_interact                 actor_27_interact
     00134C6F  _actor_28_interact                 actor_28_interact
     00134CB3  _actor_32_interact                 actor_32_interact
     00134D69  _actor_33_update                   actor_33_update
     00134E3C  _actor_34_update                   actor_34_update
     00134F0F  _actor_35_update                   actor_35_update
     00134FE2  _actor_9_interact                  actor_9_interact
     0013503E  _actor_pattern_handler_update      actor_pattern_handler_update
     001350D8  ___func_avatar_font_0              avatar_font_0
     00135160  _avatar_font_0                     avatar_font_0
ASxxxx Linker V03.00/V05.40 + sdld,  page 70.
Hexadecimal  [32-Bits]

Area                                    Addr        Size        Decimal Bytes (Attributes)
--------------------------------        ----        ----        ------- ----- ------------
_CODE_19                            00134000    00003FFF =       16383. bytes (REL,CON)

      Value  Global                              Global Defined In Module
      -----  --------------------------------   ------------------------
     00135168  ___func_bg_gameover_tileset        bg_gameover_tileset
     00135168  _bg_gameover_tileset               bg_gameover_tileset
     0013529A  ___func_bg_misc_tileset            bg_misc_tileset
     0013529A  _bg_misc_tileset                   bg_misc_tileset
     001353BC  ___func_bg_water_tileset           bg_water_tileset
     001353BC  _bg_water_tileset                  bg_water_tileset
     0013548E  ___func_frame_image                frame_image
     0013548E  _frame_image                       frame_image
     0013551E  ___func_palette_0                  palette_0
     0013551E  _palette_0                         palette_0
     00135561  ___func_palette_1                  palette_1
     00135561  _palette_1                         palette_1
     001355A4  ___func_palette_10                 palette_10
     001355A4  _palette_10                        palette_10
     001355E7  ___func_palette_11                 palette_11
     001355E7  _palette_11                        palette_11
     0013562A  ___func_palette_12                 palette_12
     0013562A  _palette_12                        palette_12
     0013566D  ___func_palette_13                 palette_13
     0013566D  _palette_13                        palette_13
     001356B0  ___func_palette_14                 palette_14
     001356B0  _palette_14                        palette_14
     001356F3  ___func_palette_15                 palette_15
     001356F3  _palette_15                        palette_15
     00135736  ___func_palette_16                 palette_16
     00135736  _palette_16                        palette_16
     00135779  ___func_palette_17                 palette_17
     00135779  _palette_17                        palette_17
     001357BC  ___func_palette_18                 palette_18
     001357BC  _palette_18                        palette_18
     001357FF  ___func_palette_19                 palette_19
     001357FF  _palette_19                        palette_19
     00135842  ___func_scene_0_actors             scene_0_actors
     00135842  _scene_0_actors                    scene_0_actors
     00135946  ___func_scene_battle_test_1_acto   scene_battle_test_1_actors
     00135946  _scene_battle_test_1_actors        scene_battle_test_1_actors
     001359E2  _scene_battle_test_1_init          scene_battle_test_1_init
     00135A8A  ___func_scene_battle_test_2_acto   scene_battle_test_2_actors
     00135A8A  _scene_battle_test_2_actors        scene_battle_test_2_actors
     00135B5A  _scene_battle_test_2_init          scene_battle_test_2_init
     00135BDE  _scene_battle_test_2_p_hit1        scene_battle_test_2_p_hit1
     00135C75  _scene_debug_init                  scene_debug_init
     00135CD8  _scene_intro_01_init               scene_intro_01_init
     00135DA1  _scene_intro_02_init               scene_intro_02_init
     00135E52  _scene_intro_04_init               scene_intro_04_init
     00135F0D  _scene_intro_05_init               scene_intro_05_init
     00135FA5  _scene_intro_06_init               scene_intro_06_init
     0013603A  _scene_intro_07_init               scene_intro_07_init
     001360F8  _scene_logo_init                   scene_logo_init
     00136144  _scene_menu_1_init                 scene_menu_1_init
     001361F3  ___func_scene_room_04_actors       scene_room_04_actors
ASxxxx Linker V03.00/V05.40 + sdld,  page 71.
Hexadecimal  [32-Bits]

Area                                    Addr        Size        Decimal Bytes (Attributes)
--------------------------------        ----        ----        ------- ----- ------------
_CODE_19                            00134000    00003FFF =       16383. bytes (REL,CON)

      Value  Global                              Global Defined In Module
      -----  --------------------------------   ------------------------
     001361F3  _scene_room_04_actors              scene_room_04_actors
     001362F7  _scene_room_05_init                scene_room_05_init
     00136341  ___func_scene_room_07_actors       scene_room_07_actors
     00136341  _scene_room_07_actors              scene_room_07_actors
     001363DD  ___func_scene_room_07_triggers     scene_room_07_triggers
     001363DD  _scene_room_07_triggers            scene_room_07_triggers
     00136485  ___func_scene_room_09_actors       scene_room_09_actors
     00136485  _scene_room_09_actors              scene_room_09_actors
     001364ED  ___func_scene_room_10_actors       scene_room_10_actors
     001364ED  _scene_room_10_actors              scene_room_10_actors
     00136555  _scene_room_12_init                scene_room_12_init
     001365AB  ___func_scene_room_13_actors       scene_room_13_actors
     001365AB  _scene_room_13_actors              scene_room_13_actors
     00136613  _scene_room_14_init                scene_room_14_init
     0013666E  _script_12                         script_12
     001366DC  _script_13                         script_13
     00136737  _script_add_menu_to_overworl       script_add_menu_to_overworl
     0013678C  _script_engine_init                
     001367D4  _script_input_3                    script_input_3
     001367FF  _script_input_6                    script_input_6
     00136848  ___func_sprite_battleenemyparts_   sprite_battleenemyparts_tile
     00136848  _sprite_battleenemyparts_tileset   sprite_battleenemyparts_tile
     0013690A  ___func_sprite_battleenemyparts    sprite_battleenemyparts
     0013690A  _sprite_battleenemyparts_metaspr   sprite_battleenemyparts
     00136936  _sprite_battleenemyparts_metaspr   sprite_battleenemyparts
     00136962  _sprite_battleenemyparts_metaspr   sprite_battleenemyparts
     0013698E  _sprite_battleenemyparts_metaspr   sprite_battleenemyparts
     00136998  _sprite_battleenemyparts_animati   sprite_battleenemyparts
     001369A8  _sprite_battleenemyparts_animati   sprite_battleenemyparts
     001369AA  _sprite_battleenemyparts           sprite_battleenemyparts
     001369BD  ___func_sprite_battleui            sprite_battleui
     001369BD  _sprite_battleui_metasprite_0      sprite_battleui
     001369D5  _sprite_battleui_metasprite_1      sprite_battleui
     001369ED  _sprite_battleui_metasprite_2      sprite_battleui
     00136A05  _sprite_battleui_metasprite_3      sprite_battleui
     00136A1D  _sprite_battleui_metasprite_4      sprite_battleui
     00136A31  _sprite_battleui_metasprite_5      sprite_battleui
     00136A45  _sprite_battleui_metasprite_6      sprite_battleui
     00136A59  _sprite_battleui_metasprite_7      sprite_battleui
     00136A6D  _sprite_battleui_metasprites       sprite_battleui
     00136A7D  _sprite_battleui_animations        sprite_battleui
     00136A8D  _sprite_battleui_animations_look   sprite_battleui
     00136A8F  _sprite_battleui                   sprite_battleui
     00136AA2  ___func_sprite_bigdoor_v3_tilese   sprite_bigdoor_v3_tileset
     00136AA2  _sprite_bigdoor_v3_tileset         sprite_bigdoor_v3_tileset
     00136B64  ___func_sprite_bigdoor_v3          sprite_bigdoor_v3
     00136B64  _sprite_bigdoor_v3_metasprite_0    sprite_bigdoor_v3
     00136B98  _sprite_bigdoor_v3_metasprites     sprite_bigdoor_v3
     00136B9A  _sprite_bigdoor_v3_animations      sprite_bigdoor_v3
     00136BAA  _sprite_bigdoor_v3_animations_lo   sprite_bigdoor_v3
     00136BAC  _sprite_bigdoor_v3                 sprite_bigdoor_v3
ASxxxx Linker V03.00/V05.40 + sdld,  page 72.
Hexadecimal  [32-Bits]

Area                                    Addr        Size        Decimal Bytes (Attributes)
--------------------------------        ----        ----        ------- ----- ------------
_CODE_19                            00134000    00003FFF =       16383. bytes (REL,CON)

      Value  Global                              Global Defined In Module
      -----  --------------------------------   ------------------------
     00136BBF  ___func_sprite_blooky_tileset      sprite_blooky_tileset
     00136BBF  _sprite_blooky_tileset             sprite_blooky_tileset
     00136C41  ___func_sprite_candy_tileset       sprite_candy_tileset
     00136C41  _sprite_candy_tileset              sprite_candy_tileset
     00136D03  ___func_sprite_candy               sprite_candy
     00136D03  _sprite_candy_metasprite_0         sprite_candy
     00136D27  _sprite_candy_metasprites          sprite_candy
     00136D29  _sprite_candy_animations           sprite_candy
     00136D39  _sprite_candy_animations_lookup    sprite_candy
     00136D3B  _sprite_candy                      sprite_candy
     00136D4E  ___func_sprite_debug_flowey_face   sprite_debug_flowey_face_til
     00136D4E  _sprite_debug_flowey_face_tilese   sprite_debug_flowey_face_til
     00136E90  ___func_sprite_dummy_tileset       sprite_dummy_tileset
     00136E90  _sprite_dummy_tileset              sprite_dummy_tileset
     00136F12  ___func_sprite_floweycircle_tile   sprite_floweycircle_tileset
     00136F12  _sprite_floweycircle_tileset       sprite_floweycircle_tileset
     00136F94  ___func_sprite_floweycircle        sprite_floweycircle
     00136F94  _sprite_floweycircle_metasprite_   sprite_floweycircle
     00136FB8  _sprite_floweycircle_metasprite_   sprite_floweycircle
     00136FDC  _sprite_floweycircle_metasprite_   sprite_floweycircle
     00136FE8  _sprite_floweycircle_metasprite_   sprite_floweycircle
     00136FF8  _sprite_floweycircle_metasprite_   sprite_floweycircle
     0013700C  _sprite_floweycircle_metasprite_   sprite_floweycircle
     00137028  _sprite_floweycircle_metasprite_   sprite_floweycircle
     00137048  _sprite_floweycircle_metasprite_   sprite_floweycircle
     0013706C  _sprite_floweycircle_metasprites   sprite_floweycircle
     0013707C  _sprite_floweycircle_animations    sprite_floweycircle
     0013709C  _sprite_floweycircle_animations_   sprite_floweycircle
     001370AA  _sprite_floweycircle               sprite_floweycircle
     001370BD  ___func_sprite_froggit_overworld   sprite_froggit_overworld__ti
     001370BD  _sprite_froggit_overworld__tiles   sprite_froggit_overworld__ti
     0013713F  ___func_sprite_star_tileset        sprite_star_tileset
     0013713F  _sprite_star_tileset               sprite_star_tileset
     001371C1  ___func_sprite_toriel              sprite_toriel
     001371C1  _sprite_toriel_metasprite_0        sprite_toriel
     001371DD  _sprite_toriel_metasprite_1        sprite_toriel
     001371F5  _sprite_toriel_metasprite_2        sprite_toriel
     00137209  _sprite_toriel_metasprite_3        sprite_toriel
     00137221  _sprite_toriel_metasprite_4        sprite_toriel
     0013723D  _sprite_toriel_metasprite_5        sprite_toriel
     00137259  _sprite_toriel_metasprite_6        sprite_toriel
     00137271  _sprite_toriel_metasprite_7        sprite_toriel
     00137285  _sprite_toriel_metasprite_8        sprite_toriel
     00137299  _sprite_toriel_metasprite_9        sprite_toriel
     001372B1  _sprite_toriel_metasprites         sprite_toriel
     001372C9  _sprite_toriel_animations          sprite_toriel
     001372D9  _sprite_toriel_animations_lookup   sprite_toriel
     001372DB  _sprite_toriel                     sprite_toriel
     001372EE  ___func_sprite_wallswitch          sprite_wallswitch
     001372EE  _sprite_wallswitch_metasprite_0    sprite_wallswitch
     001372F6  _sprite_wallswitch_metasprite_1    sprite_wallswitch
ASxxxx Linker V03.00/V05.40 + sdld,  page 73.
Hexadecimal  [32-Bits]

Area                                    Addr        Size        Decimal Bytes (Attributes)
--------------------------------        ----        ----        ------- ----- ------------
_CODE_19                            00134000    00003FFF =       16383. bytes (REL,CON)

      Value  Global                              Global Defined In Module
      -----  --------------------------------   ------------------------
     001372FE  _sprite_wallswitch_metasprites     sprite_wallswitch
     00137302  _sprite_wallswitch_animations      sprite_wallswitch
     00137322  _sprite_wallswitch_animations_lo   sprite_wallswitch
     0013732C  _sprite_wallswitch                 sprite_wallswitch
     0013733F  _trigger_61_interact               trigger_61_interact
     001373A9  _trigger_62_interact               trigger_62_interact
     00137413  _trigger_63_interact               trigger_63_interact
     0013747D  _trigger_64_interact               trigger_64_interact
     001374E7  _trigger_65_interact               trigger_65_interact
     00137551  _trigger_66_interact               trigger_66_interact
     001375BB  _trigger_67_interact               trigger_67_interact
     00137659  _trigger_69_interact               trigger_69_interact
     001376C3  _trigger_70_interact               trigger_70_interact
     0013772D  _trigger_71_interact               trigger_71_interact
     00137797  _trigger_72_interact               trigger_72_interact
     00137801  _trigger_73_interact               trigger_73_interact
     001378D3  _trigger_74_interact               trigger_74_interact
     00137971  _trigger_75_interact               trigger_75_interact
     00137A43  _trigger_76_interact               trigger_76_interact
     00137AAD  _trigger_77_interact               trigger_77_interact
     00137B17  _trigger_78_interact               trigger_78_interact
     00137BB5  _trigger_80_interact               trigger_80_interact
     00137C47  _trigger_81_interact               trigger_81_interact
     00137C91  _trigger_82_interact               trigger_82_interact
     00137CDB  _trigger_83_interact               trigger_83_interact
     00137D6D  _trigger_84_interact               trigger_84_interact
     00137DFF  _trigger_85_interact               trigger_85_interact
     00137E91  _trigger_86_interact               trigger_86_interact
     00137F23  _trigger_87_interact               trigger_87_interact
     00137FB5  _trigger_88_interact               trigger_88_interact

ASxxxx Linker V03.00/V05.40 + sdld,  page 74.
Hexadecimal  [32-Bits]

Area                                    Addr        Size        Decimal Bytes (Attributes)
--------------------------------        ----        ----        ------- ----- ------------
_CODE_17                            00114000    00003FFF =       16383. bytes (REL,CON)

      Value  Global                              Global Defined In Module
      -----  --------------------------------   ------------------------
     00114000  _CGBFadeToWhiteStep                fade_manager
     00114039  _CGBFadeToBlackStep                fade_manager
     00114074  _ApplyPaletteChangeColor           fade_manager
     001140B1  _fade_speeds                       fade_manager
     001140B8  _DMGFadeToWhiteStep                fade_manager
     001140D9  _DMGFadeToBlackStep                fade_manager
     001140FC  _ApplyPaletteChangeDMG             fade_manager
     00114152  _fade_init                         fade_manager
     00114174  _fade_in                           fade_manager
     0011419E  _fade_out                          fade_manager
     001141C7  _fade_update                       fade_manager
     0011421C  _fade_applypalettechange           fade_manager
     00114230  _fade_setspeed                     fade_manager
     00114240  _fade_in_modal                     fade_manager
     0011425A  _fade_out_modal                    fade_manager
     00114274  _set_sgb_border                    sgb_border
     0011445E  ___func_VM_SIO                     vm_sio
     0011445E  _vm_sio_set_mode                   vm_sio
     00114470  _vm_sio_exchange                   vm_sio
     00114750  _actor_1_interact                  actor_1_interact
     00114931  _actor_11_interact                 actor_11_interact
     00114B15  ___func_bg_battle1_test_tilemap_   bg_battle1_test_tilemap_attr
     00114B15  _bg_battle1_test_tilemap_attr      bg_battle1_test_tilemap_attr
     00114CF5  ___func_bg_battle1_test_tilemap    bg_battle1_test_tilemap
     00114CF5  _bg_battle1_test_tilemap           bg_battle1_test_tilemap
     00114ED5  ___func_bg_debug_flowey_battle_t   bg_debug_flowey_battle_tiles
     00114ED5  _bg_debug_flowey_battle_tileset    bg_debug_flowey_battle_tiles
     00115117  ___func_bg_loadmenu_tileset        bg_loadmenu_tileset
     00115117  _bg_loadmenu_tileset               bg_loadmenu_tileset
     001153E9  ___func_bg_logo_tileset            bg_logo_tileset
     001153E9  _bg_logo_tileset                   bg_logo_tileset
     001155DB  ___func_bg_room06_tileset          bg_room06_tileset
     001155DB  _bg_room06_tileset                 bg_room06_tileset
     0011586D  ___func_bg_room09_tileset          bg_room09_tileset
     0011586D  _bg_room09_tileset                 bg_room09_tileset
     00115A6F  ___func_bg_room11_tileset          bg_room11_tileset
     00115A6F  _bg_room11_tileset                 bg_room11_tileset
     00115CC1  ___func_bg_room14_tileset          bg_room14_tileset
     00115CC1  _bg_room14_tileset                 bg_room14_tileset
     00115FA3  ___func_bg_room15_tileset          bg_room15_tileset
     00115FA3  _bg_room15_tileset                 bg_room15_tileset
     00116155  ___func_bg_room16_tileset          bg_room16_tileset
     00116155  _bg_room16_tileset                 bg_room16_tileset
     001163A7  ___func_bg_room20_tileset          bg_room20_tileset
     001163A7  _bg_room20_tileset                 bg_room20_tileset
     00116659  _scene_0_p_hit1                    scene_0_p_hit1
     00116903  _scene_room_04_init                scene_room_04_init
     00116B12  ___func_scene_room_05_actors       scene_room_05_actors
     00116B12  _scene_room_05_actors              scene_room_05_actors
     00116D1A  _scene_room_07_init                scene_room_07_init
ASxxxx Linker V03.00/V05.40 + sdld,  page 75.
Hexadecimal  [32-Bits]

Area                                    Addr        Size        Decimal Bytes (Attributes)
--------------------------------        ----        ----        ------- ----- ------------
_CODE_17                            00114000    00003FFF =       16383. bytes (REL,CON)

      Value  Global                              Global Defined In Module
      -----  --------------------------------   ------------------------
     00116F08  ___func_scene_room_14_actors       scene_room_14_actors
     00116F08  _scene_room_14_actors              scene_room_14_actors
     00117110  ___func_scene_room_17_collisions   scene_room_17_collisions
     00117110  _scene_room_17_collisions          scene_room_17_collisions
     00117410  ___func_scene_room_20_collisions   scene_room_20_collisions
     00117410  _scene_room_20_collisions          scene_room_20_collisions
     00117710  ___func_sprite_frisk_new_compres   sprite_frisk_new_compressed_
     00117710  _sprite_frisk_new_compressed_til   sprite_frisk_new_compressed_
     00117912  ___func_sprite_toriel_tileset      sprite_toriel_tileset
     00117912  _sprite_toriel_tileset             sprite_toriel_tileset
     00117B14  _trigger_37_interact               trigger_37_interact
     00117DF0  _utgb_cat_var_to_string            PauseMenuPlugin
     00117E0C  _copy_screen_area_to_overlay       PauseMenuPlugin
     00117E58  _pauseMenuMainShow                 PauseMenuPlugin
     00117EC2  _pauseMenuInstSpeed                PauseMenuPlugin
     00117EC5  _pauseMenuMainStartPos             PauseMenuPlugin
     00117EDA  _ugb_show_pause_menu               PauseMenuPlugin

ASxxxx Linker V03.00/V05.40 + sdld,  page 76.
Hexadecimal  [32-Bits]

Area                                    Addr        Size        Decimal Bytes (Attributes)
--------------------------------        ----        ----        ------- ----- ------------
_CODE_10                            000A4000    00003FFF =       16383. bytes (REL,CON)

      Value  Global                              Global Defined In Module
      -----  --------------------------------   ------------------------
     000A4000  _printer_send_receive              gbprinter
     000A4036  _printer_send_byte                 gbprinter
     000A4049  _printer_send_command              gbprinter
     000A406C  _printer_print_tile                gbprinter
     000A40FD  _printer_wait                      gbprinter
     000A412F  _gbprinter_detect                  gbprinter
     000A4149  _gbprinter_print_overlay           gbprinter
     000A4316  _scroll_init                       scroll
     000A4340  _scroll_reset                      scroll
     000A4360  _scroll_update                     scroll
     000A4471  _scroll_viewport                   scroll
     000A490A  _scroll_repaint                    scroll
     000A491A  _scroll_render_rows                scroll
     000A49B0  _scroll_queue_row                  scroll
     000A49D2  _scroll_queue_col                  scroll
     000A4A1D  ___func_VM_UI                      vm_ui
     000A4A1D  _vm_display_text                   vm_ui
     000A4A8B  _vm_switch_text_layer              vm_ui
     000A4AA5  _vm_overlay_setpos                 vm_ui
     000A4ABF  _vm_overlay_wait                   vm_ui
     000A4B4F  _vm_overlay_move_to                vm_ui
     000A4B93  _vm_overlay_set_scroll             vm_ui
     000A4BCC  _vm_overlay_clear                  vm_ui
     000A4C9E  _vm_overlay_show                   vm_ui
     000A4CEC  _vm_choice                         vm_ui
     000A4E07  _vm_set_font                       vm_ui
     000A4E36  _vm_overlay_scroll                 vm_ui
     000A4E97  _vm_overlay_set_submap             vm_ui
     000A4F03  _vm_overlay_set_submap_ex          vm_ui
     000A5004  _vm_overlay_set_map                vm_ui
     000A5163  _vm_set_text_sound                 vm_ui
     000A517C  ___func_bg_room11_tilemap_attr     bg_room11_tilemap_attr
     000A517C  _bg_room11_tilemap_attr            bg_room11_tilemap_attr
     000A597C  ___func_bg_room11_tilemap          bg_room11_tilemap
     000A597C  _bg_room11_tilemap                 bg_room11_tilemap
     000A617C  ___func_bg_room18_tilemap_attr     bg_room18_tilemap_attr
     000A617C  _bg_room18_tilemap_attr            bg_room18_tilemap_attr
     000A68FC  ___func_bg_room18_tilemap          bg_room18_tilemap
     000A68FC  _bg_room18_tilemap                 bg_room18_tilemap
     000A707C  ___func_scene_room_06_sprites      scene_room_06_sprites
     000A707C  _scene_room_06_sprites             scene_room_06_sprites
     000A707F  ___func_scene_room_11_collisions   scene_room_11_collisions
     000A707F  _scene_room_11_collisions          scene_room_11_collisions
     000A787F  ___func_scene_room_18_collisions   scene_room_18_collisions
     000A787F  _scene_room_18_collisions          scene_room_18_collisions
ASxxxx Linker V03.00/V05.40 + sdld,  page 77.
Hexadecimal  [32-Bits]

Area                                    Addr        Size        Decimal Bytes (Attributes)
--------------------------------        ----        ----        ------- ----- ------------
_HEADER_SIO0                        00000000    00000004 =           4. bytes (ABS,CON)

      Value  Global                              Global Defined In Module
      -----  --------------------------------   ------------------------
ASxxxx Linker V03.00/V05.40 + sdld,  page 78.
Hexadecimal  [32-Bits]

Area                                    Addr        Size        Decimal Bytes (Attributes)
--------------------------------        ----        ----        ------- ----- ------------
_HEADER_TIMER0                      00000000    00000004 =           4. bytes (ABS,CON)

      Value  Global                              Global Defined In Module
      -----  --------------------------------   ------------------------
ASxxxx Linker V03.00/V05.40 + sdld,  page 79.
Hexadecimal  [32-Bits]

Area                                    Addr        Size        Decimal Bytes (Attributes)
--------------------------------        ----        ----        ------- ----- ------------
_CODE_16                            00104000    00003FFE =       16382. bytes (REL,CON)

      Value  Global                              Global Defined In Module
      -----  --------------------------------   ------------------------
     00104000  _atan2                             math_atan2
     0010419F  _atan2_table                       math_atan2
     00104307  ___func_bg_room04_tilemap_attr     bg_room04_tilemap_attr
     00104307  _bg_room04_tilemap_attr            bg_room04_tilemap_attr
     00104607  ___func_bg_room04_tilemap          bg_room04_tilemap
     00104607  _bg_room04_tilemap                 bg_room04_tilemap
     00104907  ___func_bg_room06_tilemap_attr     bg_room06_tilemap_attr
     00104907  _bg_room06_tilemap_attr            bg_room06_tilemap_attr
     00104C07  ___func_bg_room06_tilemap          bg_room06_tilemap
     00104C07  _bg_room06_tilemap                 bg_room06_tilemap
     00104F07  ___func_bg_room09_tilemap_attr     bg_room09_tilemap_attr
     00104F07  _bg_room09_tilemap_attr            bg_room09_tilemap_attr
     00105207  ___func_bg_room09_tilemap          bg_room09_tilemap
     00105207  _bg_room09_tilemap                 bg_room09_tilemap
     00105507  ___func_bg_room12_tileset          bg_room12_tileset
     00105507  _bg_room12_tileset                 bg_room12_tileset
     00105819  ___func_bg_room15_tilemap_attr     bg_room15_tilemap_attr
     00105819  _bg_room15_tilemap_attr            bg_room15_tilemap_attr
     00105B19  ___func_bg_room15_tilemap          bg_room15_tilemap
     00105B19  _bg_room15_tilemap                 bg_room15_tilemap
     00105E19  ___func_bg_room16_tilemap_attr     bg_room16_tilemap_attr
     00105E19  _bg_room16_tilemap_attr            bg_room16_tilemap_attr
     00106119  ___func_bg_room16_tilemap          bg_room16_tilemap
     00106119  _bg_room16_tilemap                 bg_room16_tilemap
     00106419  ___func_bg_room17_tilemap          bg_room17_tilemap
     00106419  _bg_room17_tilemap                 bg_room17_tilemap
     00106719  ___func_bg_room20_tilemap_attr     bg_room20_tilemap_attr
     00106719  _bg_room20_tilemap_attr            bg_room20_tilemap_attr
     00106A19  ___func_bg_room20_tilemap          bg_room20_tilemap
     00106A19  _bg_room20_tilemap                 bg_room20_tilemap
     00106D19  ___func_bg_room22_tileset          bg_room22_tileset
     00106D19  _bg_room22_tileset                 bg_room22_tileset
     0010704B  _scene_intro_03_init               scene_intro_03_init
     001070FE  ___func_scene_room_04_collisions   scene_room_04_collisions
     001070FE  _scene_room_04_collisions          scene_room_04_collisions
     001073FE  ___func_scene_room_06_collisions   scene_room_06_collisions
     001073FE  _scene_room_06_collisions          scene_room_06_collisions
     001076FE  ___func_scene_room_09_collisions   scene_room_09_collisions
     001076FE  _scene_room_09_collisions          scene_room_09_collisions
     001079FE  ___func_scene_room_15_collisions   scene_room_15_collisions
     001079FE  _scene_room_15_collisions          scene_room_15_collisions
     00107CFE  ___func_scene_room_16_collisions   scene_room_16_collisions
     00107CFE  _scene_room_16_collisions          scene_room_16_collisions

ASxxxx Linker V03.00/V05.40 + sdld,  page 80.
Hexadecimal  [32-Bits]

Area                                    Addr        Size        Decimal Bytes (Attributes)
--------------------------------        ----        ----        ------- ----- ------------
_CODE_14                            000E4000    00004000 =       16384. bytes (REL,CON)

      Value  Global                              Global Defined In Module
      -----  --------------------------------   ------------------------
     000E4000  _projectiles_init                  projectiles
     000E402F  _projectile_launch                 projectiles
     000E4446  ___func_VM_CAMERA                  vm_camera
     000E4446  _vm_camera_move_to                 vm_camera
     000E4599  _vm_camera_set_pos                 vm_camera
     000E45E0  _camera_shake_frames               vm_camera
     000E46D8  ___func_bg_intro01_tileset         bg_intro01_tileset
     000E46D8  _bg_intro01_tileset                bg_intro01_tileset
     000E4B8A  ___func_bg_room02_tileset          bg_room02_tileset
     000E4B8A  _bg_room02_tileset                 bg_room02_tileset
     000E504C  ___func_bg_room03_tileset          bg_room03_tileset
     000E504C  _bg_room03_tileset                 bg_room03_tileset
     000E553E  ___func_bg_room12_tilemap_attr     bg_room12_tilemap_attr
     000E553E  _bg_room12_tilemap_attr            bg_room12_tilemap_attr
     000E59BE  ___func_bg_room12_tilemap          bg_room12_tilemap
     000E59BE  _bg_room12_tilemap                 bg_room12_tilemap
     000E5E3E  ___func_bg_room14_tilemap_attr     bg_room14_tilemap_attr
     000E5E3E  _bg_room14_tilemap_attr            bg_room14_tilemap_attr
     000E637E  ___func_bg_room14_tilemap          bg_room14_tilemap
     000E637E  _bg_room14_tilemap                 bg_room14_tilemap
     000E68BE  ___func_bg_room25_tileset          bg_room25_tileset
     000E68BE  _bg_room25_tileset                 bg_room25_tileset
     000E6D60  ___func_cursor_image               cursor_image
     000E6D60  _cursor_image                      cursor_image
     000E6D70  ___func_scene_room_12_collisions   scene_room_12_collisions
     000E6D70  _scene_room_12_collisions          scene_room_12_collisions
     000E71F0  ___func_scene_room_14_collisions   scene_room_14_collisions
     000E71F0  _scene_room_14_collisions          scene_room_14_collisions
     000E7730  ___func_sound_voices_sav_00        sound_voices_sav
     000E7730  ___func_sound_voices_sav_01        sound_voices_sav
     000E7730  ___func_sound_voices_sav_02        sound_voices_sav
     000E7730  ___func_sound_voices_sav_03        sound_voices_sav
     000E7730  ___func_sound_voices_sav_04        sound_voices_sav
     000E7730  ___func_sound_voices_sav_05        sound_voices_sav
     000E7730  ___func_sound_voices_sav_06        sound_voices_sav
     000E7730  ___func_sound_voices_sav_07        sound_voices_sav
     000E7730  ___func_sound_voices_sav_08        sound_voices_sav
     000E7730  ___func_sound_voices_sav_09        sound_voices_sav
     000E7730  ___func_sound_voices_sav_10        sound_voices_sav
     000E7730  ___func_sound_voices_sav_11        sound_voices_sav
     000E7730  _sound_voices_sav_00               sound_voices_sav
     000E7742  _sound_voices_sav_01               sound_voices_sav
     000E7754  _sound_voices_sav_02               sound_voices_sav
     000E77BA  _sound_voices_sav_03               sound_voices_sav
     000E783F  _sound_voices_sav_04               sound_voices_sav
     000E78B1  _sound_voices_sav_05               sound_voices_sav
     000E7940  _sound_voices_sav_06               sound_voices_sav
     000E79E7  _sound_voices_sav_07               sound_voices_sav
     000E7A8A  _sound_voices_sav_08               sound_voices_sav
     000E7AFD  _sound_voices_sav_09               sound_voices_sav
ASxxxx Linker V03.00/V05.40 + sdld,  page 81.
Hexadecimal  [32-Bits]

Area                                    Addr        Size        Decimal Bytes (Attributes)
--------------------------------        ----        ----        ------- ----- ------------
_CODE_14                            000E4000    00004000 =       16384. bytes (REL,CON)

      Value  Global                              Global Defined In Module
      -----  --------------------------------   ------------------------
     000E7B6C  _sound_voices_sav_10               sound_voices_sav
     000E7BB7  _sound_voices_sav_11               sound_voices_sav
     000E7BBE  ___func_sprite_frisk_new_tileset   sprite_frisk_new_tileset
     000E7BBE  _sprite_frisk_new_tileset          sprite_frisk_new_tileset
ASxxxx Linker V03.00/V05.40 + sdld,  page 82.
Hexadecimal  [32-Bits]

Area                                    Addr        Size        Decimal Bytes (Attributes)
--------------------------------        ----        ----        ------- ----- ------------
_CODE_1                             00014000    00004000 =       16384. bytes (REL,CON)

      Value  Global                              Global Defined In Module
      -----  --------------------------------   ------------------------
     00014000  _ui_swap_tiles                     
     0001404A  _ui_print_make_mask_lr             
     00014066  _ui_print_make_mask_rl             
     00014082  _ui_init                           ui
     00014153  _ui_load_tiles                     ui
     000141AA  _ui_draw_frame                     ui
     00014244  _ui_print_reset                    ui
     00014295  _ui_set_start_tile                 ui
     000142C1  _ui_print_render                   ui
     00014558  _ui_draw_text_buffer_char          ui
     00014A3C  _ui_run_menu                       ui
     00014C25  _ui_run_modal                      ui
     00014CDF  ___func_VM_SGB                     vm_sgb
     000174B6  _song_ruins_Data                   song_ruins_Data
     00017FB2  _song_start_menu_Data              song_start_menu_Data
     00017FC7  ___func_scene_room_02_sprites      scene_room_02_sprites
     00017FC7  _scene_room_02_sprites             scene_room_02_sprites
     00017FCA  _trigger_38_interact               trigger_38_interact
ASxxxx Linker V03.00/V05.40 + sdld,  page 83.
Hexadecimal  [32-Bits]

Area                                    Addr        Size        Decimal Bytes (Attributes)
--------------------------------        ----        ----        ------- ----- ------------
_CODE_12                            000C4000    00004000 =       16384. bytes (REL,CON)

      Value  Global                              Global Defined In Module
      -----  --------------------------------   ------------------------
     000C4000  ___func_VM_GAMEBOY                 vm_gameboy
     000C4000  _vm_set_sprites_visible            vm_gameboy
     000C4017  _vm_input_wait                     vm_gameboy
     000C4040  _vm_context_prepare                vm_gameboy
     000C406B  _vm_input_attach                   vm_gameboy
     000C4081  _vm_input_detach                   vm_gameboy
     000C4095  _vm_input_get                      vm_gameboy
     000C40C9  _vm_fade                           vm_gameboy
     000C40F9  _vm_timer_prepare                  vm_gameboy
     000C4124  _vm_timer_set                      vm_gameboy
     000C413F  _vm_timer_stop                     vm_gameboy
     000C4153  _vm_timer_reset                    vm_gameboy
     000C416A  _vm_get_tile_xy                    vm_gameboy
     000C4240  _vm_replace_tile                   vm_gameboy
     000C42E7  _vm_poll                           vm_gameboy
     000C43B9  _vm_set_sprite_mode                vm_gameboy
     000C43CD  _vm_replace_tile_xy                vm_gameboy
     000C45AD  _vm_rumble                         vm_gameboy
     000C45CD  _vm_load_tiles                     vm_gameboy
     000C45E2  _vm_load_tileset                   vm_gameboy
     000C46B3  ___func_bg_battle1_test_tileset    bg_battle1_test_tileset
     000C46B3  _bg_battle1_test_tileset           bg_battle1_test_tileset
     000C4CD5  ___func_bg_intro02_tileset         bg_intro02_tileset
     000C4CD5  _bg_intro02_tileset                bg_intro02_tileset
     000C5357  ___func_bg_room07_tileset          bg_room07_tileset
     000C5357  _bg_room07_tileset                 bg_room07_tileset
     000C59A9  ___func_bg_room19_tileset          bg_room19_tileset
     000C59A9  _bg_room19_tileset                 bg_room19_tileset
     000C5DAB  ___func_scene_battle_test_1_spri   scene_battle_test_1_sprites
     000C5DAB  _scene_battle_test_1_sprites       scene_battle_test_1_sprites
     000C5DB4  ___func_scene_room_21_collisions   scene_room_21_collisions
     000C5DB4  _scene_room_21_collisions          scene_room_21_collisions
     000C6494  ___func_scene_room_22_collisions   scene_room_22_collisions
     000C6494  _scene_room_22_collisions          scene_room_22_collisions
     000C6B74  ___func_scene_room_23_collisions   scene_room_23_collisions
     000C6B74  _scene_room_23_collisions          scene_room_23_collisions
     000C7254  ___func_scene_room_24_collisions   scene_room_24_collisions
     000C7254  _scene_room_24_collisions          scene_room_24_collisions
     000C7934  _adventure_init                    adventure
     000C7949  _adventure_update                  adventure

ASxxxx Linker V03.00/V05.40 + sdld,  page 84.
Hexadecimal  [32-Bits]

Area                                    Addr        Size        Decimal Bytes (Attributes)
--------------------------------        ----        ----        ------- ----- ------------
_CODE_18                            00124000    00003FFE =       16382. bytes (REL,CON)

      Value  Global                              Global Defined In Module
      -----  --------------------------------   ------------------------
     00124000  ___func_VM_MUSIC                   vm_music
     00124000  _vm_music_play                     vm_music
     0012404D  _vm_music_stop                     vm_music
     0012406F  _vm_music_mute                     vm_music
     001240AD  _vm_music_routine                  vm_music
     001240D4  _vm_music_setpos                   vm_music
     001240DB  _vm_sound_mastervol                vm_music
     001240E1  _vm_sfx_play                       vm_music
     00124154  ___func_VM_PALETTE                 vm_palette
     00124154  _vm_load_palette                   vm_palette
     001242FD  _actor_20_update                   actor_20_update
     0012447D  _actor_30_update                   actor_30_update
     001245D8  _actor_31_update                   actor_31_update
     00124733  ___func_bg_battle2_test_tilemap_   bg_battle2_test_tilemap_attr
     00124733  _bg_battle2_test_tilemap_attr      bg_battle2_test_tilemap_attr
     0012489B  ___func_bg_battle2_test_tilemap    bg_battle2_test_tilemap
     0012489B  _bg_battle2_test_tilemap           bg_battle2_test_tilemap
     00124A03  ___func_bg_debug_flowey_battle_t   bg_debug_flowey_battle_tilem
     00124A03  _bg_debug_flowey_battle_tilemap    bg_debug_flowey_battle_tilem
     00124B6B  ___func_bg_gameover_tilemap        bg_gameover_tilemap
     00124B6B  _bg_gameover_tilemap               bg_gameover_tilemap
     00124CD3  ___func_bg_intro01_tilemap_attr    bg_intro01_tilemap_attr
     00124CD3  _bg_intro01_tilemap_attr           bg_intro01_tilemap_attr
     00124E3B  ___func_bg_intro01_tilemap         bg_intro01_tilemap
     00124E3B  _bg_intro01_tilemap                bg_intro01_tilemap
     00124FA3  ___func_bg_intro02_tilemap         bg_intro02_tilemap
     00124FA3  _bg_intro02_tilemap                bg_intro02_tilemap
     0012510B  ___func_bg_intro03_tilemap         bg_intro03_tilemap
     0012510B  _bg_intro03_tilemap                bg_intro03_tilemap
     00125273  ___func_bg_intro05_tilemap         bg_intro05_tilemap
     00125273  _bg_intro05_tilemap                bg_intro05_tilemap
     001253DB  ___func_bg_intro06_tilemap         bg_intro06_tilemap
     001253DB  _bg_intro06_tilemap                bg_intro06_tilemap
     00125543  ___func_bg_intro07_tilemap         bg_intro07_tilemap
     00125543  _bg_intro07_tilemap                bg_intro07_tilemap
     001256AB  ___func_bg_introtemplate_tilemap   bg_introtemplate_tilemap
     001256AB  _bg_introtemplate_tilemap          bg_introtemplate_tilemap
     00125813  ___func_bg_loadmenu_tilemap        bg_loadmenu_tilemap
     00125813  _bg_loadmenu_tilemap               bg_loadmenu_tilemap
     0012597B  ___func_bg_logo_tilemap            bg_logo_tilemap
     0012597B  _bg_logo_tilemap                   bg_logo_tilemap
     00125AE3  ___func_bg_misc_tilemap_attr       bg_misc_tilemap_attr
     00125AE3  _bg_misc_tilemap_attr              bg_misc_tilemap_attr
     00125C4B  ___func_bg_misc_tilemap            bg_misc_tilemap
     00125C4B  _bg_misc_tilemap                   bg_misc_tilemap
     00125DB3  ___func_bg_room18_tileset          bg_room18_tileset
     00125DB3  _bg_room18_tileset                 bg_room18_tileset
     00125F25  ___func_bg_water_tilemap           bg_water_tilemap
     00125F25  _bg_water_tilemap                  bg_water_tilemap
     0012608D  ___func_scene_0_collisions         scene_0_collisions
ASxxxx Linker V03.00/V05.40 + sdld,  page 85.
Hexadecimal  [32-Bits]

Area                                    Addr        Size        Decimal Bytes (Attributes)
--------------------------------        ----        ----        ------- ----- ------------
_CODE_18                            00124000    00003FFE =       16382. bytes (REL,CON)

      Value  Global                              Global Defined In Module
      -----  --------------------------------   ------------------------
     0012608D  _scene_0_collisions                scene_0_collisions
     001261F5  ___func_scene_40_collisions        scene_40_collisions
     001261F5  _scene_40_collisions               scene_40_collisions
     0012635D  ___func_scene_41_collisions        scene_41_collisions
     0012635D  _scene_41_collisions               scene_41_collisions
     001264C5  ___func_scene_battle_test_1_coll   scene_battle_test_1_collisio
     001264C5  _scene_battle_test_1_collisions    scene_battle_test_1_collisio
     001266A5  ___func_scene_battle_test_2_coll   scene_battle_test_2_collisio
     001266A5  _scene_battle_test_2_collisions    scene_battle_test_2_collisio
     0012680D  ___func_scene_debug_collisions     scene_debug_collisions
     0012680D  _scene_debug_collisions            scene_debug_collisions
     00126975  ___func_scene_gameover_collision   scene_gameover_collisions
     00126975  _scene_gameover_collisions         scene_gameover_collisions
     00126ADD  ___func_scene_intro_01_collision   scene_intro_01_collisions
     00126ADD  _scene_intro_01_collisions         scene_intro_01_collisions
     00126C45  ___func_scene_intro_02_collision   scene_intro_02_collisions
     00126C45  _scene_intro_02_collisions         scene_intro_02_collisions
     00126DAD  ___func_scene_intro_03_collision   scene_intro_03_collisions
     00126DAD  _scene_intro_03_collisions         scene_intro_03_collisions
     00126F15  ___func_scene_intro_04_collision   scene_intro_04_collisions
     00126F15  _scene_intro_04_collisions         scene_intro_04_collisions
     0012707D  ___func_scene_intro_05_collision   scene_intro_05_collisions
     0012707D  _scene_intro_05_collisions         scene_intro_05_collisions
     001271E5  ___func_scene_intro_06_collision   scene_intro_06_collisions
     001271E5  _scene_intro_06_collisions         scene_intro_06_collisions
     0012734D  ___func_scene_intro_07_collision   scene_intro_07_collisions
     0012734D  _scene_intro_07_collisions         scene_intro_07_collisions
     001274B5  ___func_scene_logo_collisions      scene_logo_collisions
     001274B5  _scene_logo_collisions             scene_logo_collisions
     0012761D  ___func_scene_menu_1_collisions    scene_menu_1_collisions
     0012761D  _scene_menu_1_collisions           scene_menu_1_collisions
     00127785  ___func_scene_room_12_actors       scene_room_12_actors
     00127785  _scene_room_12_actors              scene_room_12_actors
     00127925  _script_10                         script_10
     00127A69  ___func_sprite_battleui_tileset    sprite_battleui_tileset
     00127A69  _sprite_battleui_tileset           sprite_battleui_tileset
     00127C2B  ___func_sprite_floweybullet        sprite_floweybullet
     00127C2B  _sprite_floweybullet_metasprite_   sprite_floweybullet
     00127C33  _sprite_floweybullet_metasprite_   sprite_floweybullet
     00127C3B  _sprite_floweybullet_metasprite_   sprite_floweybullet
     00127C4B  _sprite_floweybullet_metasprite_   sprite_floweybullet
     00127C5B  _sprite_floweybullet_metasprite_   sprite_floweybullet
     00127C5F  _sprite_floweybullet_metasprites   sprite_floweybullet
     00127C69  _sprite_floweybullet_animations    sprite_floweybullet
     00127C99  _sprite_floweybullet_animations_   sprite_floweybullet
     00127C9F  _sprite_floweybullet               sprite_floweybullet
     00127CB2  ___func_sprite_frisk_new_compres   sprite_frisk_new_compressed
     00127CB2  _sprite_frisk_new_compressed_met   sprite_frisk_new_compressed
     00127CCE  _sprite_frisk_new_compressed_met   sprite_frisk_new_compressed
     00127CEA  _sprite_frisk_new_compressed_met   sprite_frisk_new_compressed
     00127D06  _sprite_frisk_new_compressed_met   sprite_frisk_new_compressed
ASxxxx Linker V03.00/V05.40 + sdld,  page 86.
Hexadecimal  [32-Bits]

Area                                    Addr        Size        Decimal Bytes (Attributes)
--------------------------------        ----        ----        ------- ----- ------------
_CODE_18                            00124000    00003FFE =       16382. bytes (REL,CON)

      Value  Global                              Global Defined In Module
      -----  --------------------------------   ------------------------
     00127D22  _sprite_frisk_new_compressed_met   sprite_frisk_new_compressed
     00127D3E  _sprite_frisk_new_compressed_met   sprite_frisk_new_compressed
     00127D5A  _sprite_frisk_new_compressed_met   sprite_frisk_new_compressed
     00127D76  _sprite_frisk_new_compressed_met   sprite_frisk_new_compressed
     00127D92  _sprite_frisk_new_compressed_met   sprite_frisk_new_compressed
     00127DAE  _sprite_frisk_new_compressed_met   sprite_frisk_new_compressed
     00127DCA  _sprite_frisk_new_compressed_met   sprite_frisk_new_compressed
     00127DE6  _sprite_frisk_new_compressed_met   sprite_frisk_new_compressed
     00127E02  _sprite_frisk_new_compressed_met   sprite_frisk_new_compressed
     00127E2A  _sprite_frisk_new_compressed_ani   sprite_frisk_new_compressed
     00127E4A  _sprite_frisk_new_compressed_ani   sprite_frisk_new_compressed
     00127E4E  _sprite_frisk_new_compressed       sprite_frisk_new_compressed
     00127E61  ___func_sprite_frisk_new           sprite_frisk_new
     00127E61  _sprite_frisk_new_metasprite_0     sprite_frisk_new
     00127E7D  _sprite_frisk_new_metasprite_1     sprite_frisk_new
     00127E99  _sprite_frisk_new_metasprite_2     sprite_frisk_new
     00127EB5  _sprite_frisk_new_metasprite_3     sprite_frisk_new
     00127ED1  _sprite_frisk_new_metasprite_4     sprite_frisk_new
     00127EED  _sprite_frisk_new_metasprite_5     sprite_frisk_new
     00127F09  _sprite_frisk_new_metasprite_6     sprite_frisk_new
     00127F25  _sprite_frisk_new_metasprite_7     sprite_frisk_new
     00127F41  _sprite_frisk_new_metasprite_8     sprite_frisk_new
     00127F5D  _sprite_frisk_new_metasprite_9     sprite_frisk_new
     00127F79  _sprite_frisk_new_metasprite_10    sprite_frisk_new
     00127F95  _sprite_frisk_new_metasprite_11    sprite_frisk_new
     00127FB1  _sprite_frisk_new_metasprites      sprite_frisk_new
     00127FD9  _sprite_frisk_new_animations       sprite_frisk_new
     00127FE9  _sprite_frisk_new_animations_loo   sprite_frisk_new
     00127FEB  _sprite_frisk_new                  sprite_frisk_new

ASxxxx Linker V03.00/V05.40 + sdld,  page 87.
Hexadecimal  [32-Bits]

Area                                    Addr        Size        Decimal Bytes (Attributes)
--------------------------------        ----        ----        ------- ----- ------------
_CODE_2                             00024000    00004000 =       16384. bytes (REL,CON)

      Value  Global                              Global Defined In Module
      -----  --------------------------------   ------------------------
     00024000  ___func_VM_MAIN                    vm
     00024000  _vm_call                           vm
     00024042  _vm_ret                            vm
     000240A2  _vm_call_far                       vm
     00024121  _vm_ret_far                        vm
     00024199  _vm_push                           vm
     000241C4  _vm_pop                            vm
     000241FF  _vm_loop                           vm
     0002428A  _vm_jump                           vm
     00024296  _wait_frames                       vm
     0002430C  _vm_invoke                         vm
     00024439  _vm_join                           vm
     0002449B  _vm_terminate                      vm
     000244C8  _vm_if                             vm
     0002460D  _vm_if_const                       vm
     00024722  _vm_push_value                     vm
     00024774  _vm_push_value_ind                 vm
     000247E9  _vm_push_reference                 vm
     00024840  _vm_reserve                        vm
     0002486E  _vm_set                            vm
     000248CF  _vm_set_const                      vm
     000248FB  _vm_get_tlocal                     vm
     00024988  _vm_test_terminate                 vm
     00024993  _vm_idle                           vm
     0002499F  _vm_get_uint8                      vm
     000249D2  _vm_get_int8                       vm
     00024A06  _vm_get_int16                      vm
     00024A48  _vm_set_uint8                      vm
     00024A74  _vm_set_int8                       vm
     00024AA0  _vm_set_int16                      vm
     00024ADF  _vm_set_const_int8                 vm
     00024AE8  _vm_set_const_int16                vm
     00024AF4  _vm_init_rng                       vm
     00024B20  _vm_rand                           vm
     00024BA5  _vm_lock                           vm
     00024BB4  _vm_unlock                         vm
     00024BC7  _vm_raise                          vm
     00024C09  _vm_set_indirect                   vm
     00024C84  _vm_get_indirect                   vm
     00024CFF  _vm_poll_loaded                    vm
     00024D2F  _vm_memset                         vm
     00024D69  _vm_memcpy                         vm
     00024DE6  _script_runner_init                vm
     00024E9D  _script_execute                    vm
     00025003  _script_terminate                  vm
     00025068  _script_detach_hthread             vm
     000250A4  ___func_bg_room08_tilemap_attr     bg_room08_tilemap_attr
     000250A4  _bg_room08_tilemap_attr            bg_room08_tilemap_attr
     00026814  ___func_bg_room08_tilemap          bg_room08_tilemap
     00026814  _bg_room08_tilemap                 bg_room08_tilemap
ASxxxx Linker V03.00/V05.40 + sdld,  page 88.
Hexadecimal  [32-Bits]

Area                                    Addr        Size        Decimal Bytes (Attributes)
--------------------------------        ----        ----        ------- ----- ------------
_CODE_2                             00024000    00004000 =       16384. bytes (REL,CON)

      Value  Global                              Global Defined In Module
      -----  --------------------------------   ------------------------
     00027F84  ___func_scene_room_03_sprites      scene_room_03_sprites
     00027F84  _scene_room_03_sprites             scene_room_03_sprites
     00027F87  _script_9                          script_9

ASxxxx Linker V03.00/V05.40 + sdld,  page 89.
Hexadecimal  [32-Bits]

Area                                    Addr        Size        Decimal Bytes (Attributes)
--------------------------------        ----        ----        ------- ----- ------------
_CODE_13                            000D4000    00004000 =       16384. bytes (REL,CON)

      Value  Global                              Global Defined In Module
      -----  --------------------------------   ------------------------
     000D4000  _actor_36_update                   actor_36_update
     000D4558  _actor_43_update                   actor_43_update
     000D4AEC  _actor_5_update                    actor_5_update
     000D5082  ___func_bg_room01_tilemap_attr     bg_room01_tilemap_attr
     000D5082  _bg_room01_tilemap_attr            bg_room01_tilemap_attr
     000D565A  ___func_bg_room01_tilemap          bg_room01_tilemap
     000D565A  _bg_room01_tilemap                 bg_room01_tilemap
     000D5C32  ___func_bg_room03_tilemap          bg_room03_tilemap
     000D5C32  _bg_room03_tilemap                 bg_room03_tilemap
     000D61F2  ___func_bg_room10_tilemap_attr     bg_room10_tilemap_attr
     000D61F2  _bg_room10_tilemap_attr            bg_room10_tilemap_attr
     000D67F2  ___func_bg_room10_tilemap          bg_room10_tilemap
     000D67F2  _bg_room10_tilemap                 bg_room10_tilemap
     000D6DF2  ___func_scene_room_01_collisions   scene_room_01_collisions
     000D6DF2  _scene_room_01_collisions          scene_room_01_collisions
     000D73CA  ___func_scene_room_03_collisions   scene_room_03_collisions
     000D73CA  _scene_room_03_collisions          scene_room_03_collisions
     000D798A  ___func_scene_room_07_sprites      scene_room_07_sprites
     000D798A  _scene_room_07_sprites             scene_room_07_sprites
     000D798D  ___func_scene_room_10_collisions   scene_room_10_collisions
     000D798D  _scene_room_10_collisions          scene_room_10_collisions
     000D7F8D  ___func_sprite_star                sprite_star
     000D7F8D  _sprite_star_metasprite_0          sprite_star
     000D7F99  _sprite_star_metasprite_1          sprite_star
     000D7FA5  _sprite_star_metasprite_2          sprite_star
     000D7FB1  _sprite_star_metasprite_3          sprite_star
     000D7FBD  _sprite_star_metasprites           sprite_star
     000D7FC5  _sprite_star_animations            sprite_star
     000D7FE5  _sprite_star_animations_lookup     sprite_star
     000D7FED  _sprite_star                       sprite_star
ASxxxx Linker V03.00/V05.40 + sdld,  page 90.
Hexadecimal  [32-Bits]

Area                                    Addr        Size        Decimal Bytes (Attributes)
--------------------------------        ----        ----        ------- ----- ------------
_CODE_7                             00074000    00003FFF =       16383. bytes (REL,CON)

      Value  Global                              Global Defined In Module
      -----  --------------------------------   ------------------------
     00074000  ___func_bg_intro05_tileset         bg_intro05_tileset
     00074000  _bg_intro05_tileset                bg_intro05_tileset
     00074012  ___func_bg_room03_tilemap_attr     bg_room03_tilemap_attr
     00074012  _bg_room03_tilemap_attr            bg_room03_tilemap_attr
     000745D2  ___func_font_determination_color   font_determination_color_va
     000754A2  _font_determination_color_va       font_determination_color_va
     000754AA  ___func_font_determination_color   font_determination_color
     0007627A  _font_determination_color          font_determination_color
     00076282  ___func_font_inverted_varwid       font_inverted_varwid
     00077152  _font_inverted_varwid              font_inverted_varwid
     0007715A  ___func_font_miniinvert            font_miniinvert
     00077FF7  _font_miniinvert                   font_miniinvert
ASxxxx Linker V03.00/V05.40 + sdld,  page 91.
Hexadecimal  [32-Bits]

Area                                    Addr        Size        Decimal Bytes (Attributes)
--------------------------------        ----        ----        ------- ----- ------------
_CODE_11                            000B4000    00004000 =       16384. bytes (REL,CON)

      Value  Global                              Global Defined In Module
      -----  --------------------------------   ------------------------
     000B4000  ___func_bg_room01_tileset          bg_room01_tileset
     000B4000  _bg_room01_tileset                 bg_room01_tileset
     000B4702  ___func_bg_room05_tilemap_attr     bg_room05_tilemap_attr
     000B4702  _bg_room05_tilemap_attr            bg_room05_tilemap_attr
     000B4DF2  ___func_bg_room05_tilemap          bg_room05_tilemap
     000B4DF2  _bg_room05_tilemap                 bg_room05_tilemap
     000B54E2  ___func_bg_room17_tileset          bg_room17_tileset
     000B54E2  _bg_room17_tileset                 bg_room17_tileset
     000B56A4  ___func_bg_room21_tilemap_attr     bg_room21_tilemap_attr
     000B56A4  _bg_room21_tilemap_attr            bg_room21_tilemap_attr
     000B5D84  ___func_bg_room21_tilemap          bg_room21_tilemap
     000B5D84  _bg_room21_tilemap                 bg_room21_tilemap
     000B6464  ___func_bg_room22_tilemap          bg_room22_tilemap
     000B6464  _bg_room22_tilemap                 bg_room22_tilemap
     000B6B44  ___func_bg_room23_tilemap          bg_room23_tilemap
     000B6B44  _bg_room23_tilemap                 bg_room23_tilemap
     000B7224  ___func_bg_room24_tilemap          bg_room24_tilemap
     000B7224  _bg_room24_tilemap                 bg_room24_tilemap
     000B7904  ___func_scene_room_04_sprites      scene_room_04_sprites
     000B7904  _scene_room_04_sprites             scene_room_04_sprites
     000B7910  ___func_scene_room_05_collisions   scene_room_05_collisions
     000B7910  _scene_room_05_collisions          scene_room_05_collisions

ASxxxx Linker V03.00/V05.40 + sdld,  page 92.
Hexadecimal  [32-Bits]

Area                                    Addr        Size        Decimal Bytes (Attributes)
--------------------------------        ----        ----        ------- ----- ------------
_CODE_8                             00084000    00004000 =       16384. bytes (REL,CON)

      Value  Global                              Global Defined In Module
      -----  --------------------------------   ------------------------
     00084000  ___func_bg_room07_tilemap_attr     bg_room07_tilemap_attr
     00084000  _bg_room07_tilemap_attr            bg_room07_tilemap_attr
     00084B40  ___func_bg_room07_tilemap          bg_room07_tilemap
     00084B40  _bg_room07_tilemap                 bg_room07_tilemap
     00085680  ___func_bg_room13_tileset          bg_room13_tileset
     00085680  _bg_room13_tileset                 bg_room13_tileset
     00085A62  ___func_font_determination         font_determination
     00086832  _font_determination                font_determination
     000874A1  _song_your_best_friend_Data        song_your_best_friend_Data
     000874B6  ___func_scene_room_07_collisions   scene_room_07_collisions
     000874B6  _scene_room_07_collisions          scene_room_07_collisions
     00087FF6  _script_7                          script_7
ASxxxx Linker V03.00/V05.40 + sdld,  page 93.
Hexadecimal  [32-Bits]

Area                                    Addr        Size        Decimal Bytes (Attributes)
--------------------------------        ----        ----        ------- ----- ------------
_CODE_6                             00064000    00004000 =       16384. bytes (REL,CON)

      Value  Global                              Global Defined In Module
      -----  --------------------------------   ------------------------
     00064000  ___func_bg_room13_tilemap_attr     bg_room13_tilemap_attr
     00064000  _bg_room13_tilemap_attr            bg_room13_tilemap_attr
     00065138  ___func_bg_room13_tilemap          bg_room13_tilemap
     00065138  _bg_room13_tilemap                 bg_room13_tilemap
     00066270  ___func_scene_room_13_collisions   scene_room_13_collisions
     00066270  _scene_room_13_collisions          scene_room_13_collisions
     000673A8  _script_input_0                    script_input_0
     00067F05  _script_input_2                    script_input_2
     00067F06  _script_input_7                    script_input_7
     00067F07  ___func_sprite_debug_flowey_face   sprite_debug_flowey_face
     00067F07  _sprite_debug_flowey_face_metasp   sprite_debug_flowey_face
     00067F1B  _sprite_debug_flowey_face_metasp   sprite_debug_flowey_face
     00067F2F  _sprite_debug_flowey_face_metasp   sprite_debug_flowey_face
     00067F43  _sprite_debug_flowey_face_metasp   sprite_debug_flowey_face
     00067F57  _sprite_debug_flowey_face_metasp   sprite_debug_flowey_face
     00067F6B  _sprite_debug_flowey_face_metasp   sprite_debug_flowey_face
     00067F7F  _sprite_debug_flowey_face_metasp   sprite_debug_flowey_face
     00067F93  _sprite_debug_flowey_face_metasp   sprite_debug_flowey_face
     00067FA1  _sprite_debug_flowey_face_animat   sprite_debug_flowey_face
     00067FE1  _sprite_debug_flowey_face_animat   sprite_debug_flowey_face
     00067FED  _sprite_debug_flowey_face          sprite_debug_flowey_face
ASxxxx Linker V03.00/V05.40 + sdld,  page 94.
Hexadecimal  [32-Bits]

Area                                    Addr        Size        Decimal Bytes (Attributes)
--------------------------------        ----        ----        ------- ----- ------------
_CODE_3                             00034000    00004000 =       16384. bytes (REL,CON)

      Value  Global                              Global Defined In Module
      -----  --------------------------------   ------------------------
     00034000  ___func_bg_room19_tilemap_attr     bg_room19_tilemap_attr
     00034000  _bg_room19_tilemap_attr            bg_room19_tilemap_attr
     00035200  _scene_gameover_init               scene_gameover_init
     0003521E  ___func_scene_room_08_collisions   scene_room_08_collisions
     0003521E  _scene_room_08_collisions          scene_room_08_collisions
     0003698E  _platform_init                     platform
     00036B08  _platform_update                   platform

ASxxxx Linker V03.00/V05.40 + sdld,  page 95.
Hexadecimal  [32-Bits]

Area                                    Addr        Size        Decimal Bytes (Attributes)
--------------------------------        ----        ----        ------- ----- ------------
_CODE_5                             00054000    00004000 =       16384. bytes (REL,CON)

      Value  Global                              Global Defined In Module
      -----  --------------------------------   ------------------------
     00054000  ___func_bg_room19_tilemap          bg_room19_tilemap
     00054000  _bg_room19_tilemap                 bg_room19_tilemap
     00055200  ___func_scene_room_19_collisions   scene_room_19_collisions
     00055200  _scene_room_19_collisions          scene_room_19_collisions
     00056400  _script_input_1                    script_input_1
     00056401  _inv_load_item_name                InventoryEnginePlugin
     0005647C  _textSpeedStr                      InventoryEnginePlugin
     0005647F  _fontSmallStr                      InventoryEnginePlugin
     00056482  _menuMainStartPosStr               InventoryEnginePlugin
     00056486  _menuInvStartPosStr                InventoryEnginePlugin
     0005648A  _battleInvStartPosStr              InventoryEnginePlugin
     0005648E  _items                             InventoryEnginePlugin
     00057004  _maxHPStr                          InventoryEnginePlugin
     0005701D  _inv_read_item                     InventoryEnginePlugin
     0005705D  _inv_load_pause_menu               InventoryEnginePlugin
     000570C1  _inv_add_item                      InventoryEnginePlugin
     000570EF  _inv_obtain_item                   InventoryEnginePlugin
     0005728F  _inv_remove_item                   InventoryEnginePlugin
     000572C2  _inv_use_item                      InventoryEnginePlugin
     00057687  _inv_drop_item                     InventoryEnginePlugin
     00057744  _inv_write_item_desc               InventoryEnginePlugin
     00057929  _inv_get_item_count                InventoryEnginePlugin
     0005793F  _topdown_init                      topdown
     000579D6  _topdown_update                    topdown
ASxxxx Linker V03.00/V05.40 + sdld,  page 96.
Hexadecimal  [32-Bits]

Area                                    Addr        Size        Decimal Bytes (Attributes)
--------------------------------        ----        ----        ------- ----- ------------
_HEADER_LCD0                        00000000    00000003 =           3. bytes (ABS,CON)

      Value  Global                              Global Defined In Module
      -----  --------------------------------   ------------------------
ASxxxx Linker V03.00/V05.40 + sdld,  page 97.

Files Linked                              [ module(s) ]

C:\Users\Paul\AppData\Local\Temp/_gbstools/gbdk/lib/gb/crt0.o
                                          [ Runtime ]
C:/Users/Paul/AppData/Local/Temp/_gbsbuild/obj/absolute.rel
                                          [ absolute ]
C:/Users/Paul/AppData/Local/Temp/_gbsbuild/obj/actor.rel
                                          [ actor ]
C:/Users/Paul/AppData/Local/Temp/_gbsbuild/obj/bankdata.rel
                                          [ bankdata ]
C:/Users/Paul/AppData/Local/Temp/_gbsbuild/obj/bootstrap.rel
                                          [  ]
C:/Users/Paul/AppData/Local/Temp/_gbsbuild/obj/camera.rel
                                          [ camera ]
C:/Users/Paul/AppData/Local/Temp/_gbsbuild/obj/core.rel
                                          [ core ]
C:/Users/Paul/AppData/Local/Temp/_gbsbuild/obj/crash_handler.rel
                                          [  ]
C:/Users/Paul/AppData/Local/Temp/_gbsbuild/obj/data_manager.rel
                                          [ data_manager ]
C:/Users/Paul/AppData/Local/Temp/_gbsbuild/obj/events.rel
                                          [ events ]
C:/Users/Paul/AppData/Local/Temp/_gbsbuild/obj/fade_manager.rel
                                          [ fade_manager ]
C:/Users/Paul/AppData/Local/Temp/_gbsbuild/obj/flasher_s.rel
                                          [  ]
C:/Users/Paul/AppData/Local/Temp/_gbsbuild/obj/flasher.rel
                                          [ flasher ]
C:/Users/Paul/AppData/Local/Temp/_gbsbuild/obj/game_time.rel
                                          [ game_time ]
C:/Users/Paul/AppData/Local/Temp/_gbsbuild/obj/gbprinter.rel
                                          [ gbprinter ]
C:/Users/Paul/AppData/Local/Temp/_gbsbuild/obj/input.rel
                                          [ input ]
C:/Users/Paul/AppData/Local/Temp/_gbsbuild/obj/interrupt_sio.rel
                                          [  ]
C:/Users/Paul/AppData/Local/Temp/_gbsbuild/obj/interrupt_timer.rel
                                          [  ]
C:/Users/Paul/AppData/Local/Temp/_gbsbuild/obj/interrupts.rel
                                          [ interrupts ]
C:/Users/Paul/AppData/Local/Temp/_gbsbuild/obj/load_save.rel
                                          [ load_save ]
C:/Users/Paul/AppData/Local/Temp/_gbsbuild/obj/math_atan2.rel
                                          [ math_atan2 ]
C:/Users/Paul/AppData/Local/Temp/_gbsbuild/obj/math.rel
                                          [ math ]
C:/Users/Paul/AppData/Local/Temp/_gbsbuild/obj/music_manager.rel
                                          [ music_manager ]
C:/Users/Paul/AppData/Local/Temp/_gbsbuild/obj/palette.rel
                                          [ palette ]
C:/Users/Paul/AppData/Local/Temp/_gbsbuild/obj/parallax.rel
                                          [ parallax ]
C:/Users/Paul/AppData/Local/Temp/_gbsbuild/obj/projectiles.rel
                                          [ projectiles ]
C:/Users/Paul/AppData/Local/Temp/_gbsbuild/obj/scroll_a.rel
                                          [  ]
C:/Users/Paul/AppData/Local/Temp/_gbsbuild/obj/scroll.rel
                                          [ scroll ]
C:/Users/Paul/AppData/Local/Temp/_gbsbuild/obj/set_tile_submap.rel
                                          [  ]
C:/Users/Paul/AppData/Local/Temp/_gbsbuild/obj/sfx_player.rel
                                          [ sfx_player ]
C:/Users/Paul/AppData/Local/Temp/_gbsbuild/obj/sgb_border.rel
                                          [ sgb_border ]
C:/Users/Paul/AppData/Local/Temp/_gbsbuild/obj/sio.rel
                                          [ sio ]
C:/Users/Paul/AppData/Local/Temp/_gbsbuild/obj/states_caller.rel
                                          [  ]
C:/Users/Paul/AppData/Local/Temp/_gbsbuild/obj/system.rel
                                          [ system ]
C:/Users/Paul/AppData/Local/Temp/_gbsbuild/obj/trigger.rel
                                          [ trigger ]
C:/Users/Paul/AppData/Local/Temp/_gbsbuild/obj/ui_a.rel
                                          [  ]
C:/Users/Paul/AppData/Local/Temp/_gbsbuild/obj/ui.rel
                                          [ ui ]
C:/Users/Paul/AppData/Local/Temp/_gbsbuild/obj/vm_actor.rel
                                          [ vm_actor ]
C:/Users/Paul/AppData/Local/Temp/_gbsbuild/obj/vm_camera.rel
                                          [ vm_camera ]
C:/Users/Paul/AppData/Local/Temp/_gbsbuild/obj/vm_gameboy.rel
                                          [ vm_gameboy ]
C:/Users/Paul/AppData/Local/Temp/_gbsbuild/obj/vm_gbprinter.rel
                                          [ vm_gbprinter ]
C:/Users/Paul/AppData/Local/Temp/_gbsbuild/obj/vm_instructions.rel
                                          [ vm_instructions ]
C:/Users/Paul/AppData/Local/Temp/_gbsbuild/obj/vm_load_save.rel
                                          [ vm_load_save ]
C:/Users/Paul/AppData/Local/Temp/_gbsbuild/obj/vm_math.rel
                                          [ vm_math ]
C:/Users/Paul/AppData/Local/Temp/_gbsbuild/obj/vm_music.rel
                                          [ vm_music ]
C:/Users/Paul/AppData/Local/Temp/_gbsbuild/obj/vm_palette.rel
                                          [ vm_palette ]
C:/Users/Paul/AppData/Local/Temp/_gbsbuild/obj/vm_projectiles.rel
                                          [ vm_projectiles ]
C:/Users/Paul/AppData/Local/Temp/_gbsbuild/obj/vm_rtc.rel
                                          [ vm_rtc ]
C:/Users/Paul/AppData/Local/Temp/_gbsbuild/obj/vm_scene.rel
                                          [ vm_scene ]
C:/Users/Paul/AppData/Local/Temp/_gbsbuild/obj/vm_sgb.rel
                                          [ vm_sgb ]
C:/Users/Paul/AppData/Local/Temp/_gbsbuild/obj/vm_sio.rel
                                          [ vm_sio ]
C:/Users/Paul/AppData/Local/Temp/_gbsbuild/obj/vm_ui_a.rel
                                          [ vm_ui_a ]
C:/Users/Paul/AppData/Local/Temp/_gbsbuild/obj/vm_ui.rel
                                          [ vm_ui ]
C:/Users/Paul/AppData/Local/Temp/_gbsbuild/obj/vm.rel
                                          [ vm ]
C:/Users/Paul/AppData/Local/Temp/_gbsbuild/obj/actor_1_interact.rel
                                          [ actor_1_interact ]
C:/Users/Paul/AppData/Local/Temp/_gbsbuild/obj/actor_10_interact.rel
                                          [ actor_10_interact ]
C:/Users/Paul/AppData/Local/Temp/_gbsbuild/obj/actor_11_interact.rel
                                          [ actor_11_interact ]
C:/Users/Paul/AppData/Local/Temp/_gbsbuild/obj/actor_15_interact.rel
                                          [ actor_15_interact ]
C:/Users/Paul/AppData/Local/Temp/_gbsbuild/obj/actor_16_interact.rel
                                          [ actor_16_interact ]
C:/Users/Paul/AppData/Local/Temp/_gbsbuild/obj/actor_17_interact.rel
                                          [ actor_17_interact ]
C:/Users/Paul/AppData/Local/Temp/_gbsbuild/obj/actor_18_interact.rel
                                          [ actor_18_interact ]
C:/Users/Paul/AppData/Local/Temp/_gbsbuild/obj/actor_19_interact.rel
                                          [ actor_19_interact ]
C:/Users/Paul/AppData/Local/Temp/_gbsbuild/obj/actor_2_update.rel
                                          [ actor_2_update ]
C:/Users/Paul/AppData/Local/Temp/_gbsbuild/obj/actor_20_update.rel
                                          [ actor_20_update ]
C:/Users/Paul/AppData/Local/Temp/_gbsbuild/obj/actor_22_update.rel
                                          [ actor_22_update ]
C:/Users/Paul/AppData/Local/Temp/_gbsbuild/obj/actor_25_interact.rel
                                          [ actor_25_interact ]
C:/Users/Paul/AppData/Local/Temp/_gbsbuild/obj/actor_26_interact.rel
                                          [ actor_26_interact ]
C:/Users/Paul/AppData/Local/Temp/_gbsbuild/obj/actor_27_interact.rel
                                          [ actor_27_interact ]
C:/Users/Paul/AppData/Local/Temp/_gbsbuild/obj/actor_28_interact.rel
                                          [ actor_28_interact ]
C:/Users/Paul/AppData/Local/Temp/_gbsbuild/obj/actor_29_interact.rel
                                          [ actor_29_interact ]
C:/Users/Paul/AppData/Local/Temp/_gbsbuild/obj/actor_30_update.rel
                                          [ actor_30_update ]
C:/Users/Paul/AppData/Local/Temp/_gbsbuild/obj/actor_31_update.rel
                                          [ actor_31_update ]
C:/Users/Paul/AppData/Local/Temp/_gbsbuild/obj/actor_32_interact.rel
                                          [ actor_32_interact ]
C:/Users/Paul/AppData/Local/Temp/_gbsbuild/obj/actor_33_update.rel
                                          [ actor_33_update ]
C:/Users/Paul/AppData/Local/Temp/_gbsbuild/obj/actor_34_update.rel
                                          [ actor_34_update ]
C:/Users/Paul/AppData/Local/Temp/_gbsbuild/obj/actor_35_update.rel
                                          [ actor_35_update ]
C:/Users/Paul/AppData/Local/Temp/_gbsbuild/obj/actor_36_update.rel
                                          [ actor_36_update ]
C:/Users/Paul/AppData/Local/Temp/_gbsbuild/obj/actor_4_update.rel
                                          [ actor_4_update ]
C:/Users/Paul/AppData/Local/Temp/_gbsbuild/obj/actor_43_update.rel
                                          [ actor_43_update ]
C:/Users/Paul/AppData/Local/Temp/_gbsbuild/obj/actor_5_update.rel
                                          [ actor_5_update ]
C:/Users/Paul/AppData/Local/Temp/_gbsbuild/obj/actor_9_interact.rel
                                          [ actor_9_interact ]
C:/Users/Paul/AppData/Local/Temp/_gbsbuild/obj/actor_pattern_handler_update.rel
                                          [ actor_pattern_handler_update ]
C:/Users/Paul/AppData/Local/Temp/_gbsbuild/obj/avatar_font_0.rel
                                          [ avatar_font_0 ]
C:/Users/Paul/AppData/Local/Temp/_gbsbuild/obj/bg_battle1_test_tilemap_attr.rel
                                          [ bg_battle1_test_tilemap_attr ]
C:/Users/Paul/AppData/Local/Temp/_gbsbuild/obj/bg_battle1_test_tilemap.rel
                                          [ bg_battle1_test_tilemap ]
C:/Users/Paul/AppData/Local/Temp/_gbsbuild/obj/bg_battle1_test_tileset.rel
                                          [ bg_battle1_test_tileset ]
C:/Users/Paul/AppData/Local/Temp/_gbsbuild/obj/bg_battle1_test.rel
                                          [ bg_battle1_test ]
C:/Users/Paul/AppData/Local/Temp/_gbsbuild/obj/bg_battle2_test_tilemap_attr.rel
                                          [ bg_battle2_test_tilemap_attr ]
C:/Users/Paul/AppData/Local/Temp/_gbsbuild/obj/bg_battle2_test_tilemap.rel
                                          [ bg_battle2_test_tilemap ]
C:/Users/Paul/AppData/Local/Temp/_gbsbuild/obj/bg_battle2_test_tileset.rel
                                          [ bg_battle2_test_tileset ]
C:/Users/Paul/AppData/Local/Temp/_gbsbuild/obj/bg_battle2_test.rel
                                          [ bg_battle2_test ]
C:/Users/Paul/AppData/Local/Temp/_gbsbuild/obj/bg_debug_flowey_battle_tilemap.rel
                                          [ bg_debug_flowey_battle_tilemap ]
C:/Users/Paul/AppData/Local/Temp/_gbsbuild/obj/bg_debug_flowey_battle_tileset.rel
                                          [ bg_debug_flowey_battle_tileset ]
C:/Users/Paul/AppData/Local/Temp/_gbsbuild/obj/bg_debug_flowey_battle.rel
                                          [ bg_debug_flowey_battle ]
C:/Users/Paul/AppData/Local/Temp/_gbsbuild/obj/bg_gameover_tilemap.rel
                                          [ bg_gameover_tilemap ]
C:/Users/Paul/AppData/Local/Temp/_gbsbuild/obj/bg_gameover_tileset.rel
                                          [ bg_gameover_tileset ]
C:/Users/Paul/AppData/Local/Temp/_gbsbuild/obj/bg_gameover.rel
                                          [ bg_gameover ]
C:/Users/Paul/AppData/Local/Temp/_gbsbuild/obj/bg_intro01_tilemap_attr.rel
                                          [ bg_intro01_tilemap_attr ]
C:/Users/Paul/AppData/Local/Temp/_gbsbuild/obj/bg_intro01_tilemap.rel
                                          [ bg_intro01_tilemap ]
C:/Users/Paul/AppData/Local/Temp/_gbsbuild/obj/bg_intro01_tileset.rel
                                          [ bg_intro01_tileset ]
C:/Users/Paul/AppData/Local/Temp/_gbsbuild/obj/bg_intro01.rel
                                          [ bg_intro01 ]
C:/Users/Paul/AppData/Local/Temp/_gbsbuild/obj/bg_intro02_tilemap.rel
                                          [ bg_intro02_tilemap ]
C:/Users/Paul/AppData/Local/Temp/_gbsbuild/obj/bg_intro02_tileset.rel
                                          [ bg_intro02_tileset ]
C:/Users/Paul/AppData/Local/Temp/_gbsbuild/obj/bg_intro02.rel
                                          [ bg_intro02 ]
C:/Users/Paul/AppData/Local/Temp/_gbsbuild/obj/bg_intro03_tilemap.rel
                                          [ bg_intro03_tilemap ]
C:/Users/Paul/AppData/Local/Temp/_gbsbuild/obj/bg_intro03.rel
                                          [ bg_intro03 ]
C:/Users/Paul/AppData/Local/Temp/_gbsbuild/obj/bg_intro04_tileset.rel
                                          [ bg_intro04_tileset ]
C:/Users/Paul/AppData/Local/Temp/_gbsbuild/obj/bg_intro04.rel
                                          [ bg_intro04 ]
C:/Users/Paul/AppData/Local/Temp/_gbsbuild/obj/bg_intro05_tilemap.rel
                                          [ bg_intro05_tilemap ]
C:/Users/Paul/AppData/Local/Temp/_gbsbuild/obj/bg_intro05_tileset.rel
                                          [ bg_intro05_tileset ]
C:/Users/Paul/AppData/Local/Temp/_gbsbuild/obj/bg_intro05.rel
                                          [ bg_intro05 ]
C:/Users/Paul/AppData/Local/Temp/_gbsbuild/obj/bg_intro06_tilemap.rel
                                          [ bg_intro06_tilemap ]
C:/Users/Paul/AppData/Local/Temp/_gbsbuild/obj/bg_intro06_tileset.rel
                                          [ bg_intro06_tileset ]
C:/Users/Paul/AppData/Local/Temp/_gbsbuild/obj/bg_intro06.rel
                                          [ bg_intro06 ]
C:/Users/Paul/AppData/Local/Temp/_gbsbuild/obj/bg_intro07_tilemap.rel
                                          [ bg_intro07_tilemap ]
C:/Users/Paul/AppData/Local/Temp/_gbsbuild/obj/bg_intro07_tileset.rel
                                          [ bg_intro07_tileset ]
C:/Users/Paul/AppData/Local/Temp/_gbsbuild/obj/bg_intro07.rel
                                          [ bg_intro07 ]
C:/Users/Paul/AppData/Local/Temp/_gbsbuild/obj/bg_introtemplate_tilemap.rel
                                          [ bg_introtemplate_tilemap ]
C:/Users/Paul/AppData/Local/Temp/_gbsbuild/obj/bg_introtemplate_tileset.rel
                                          [ bg_introtemplate_tileset ]
C:/Users/Paul/AppData/Local/Temp/_gbsbuild/obj/bg_introtemplate.rel
                                          [ bg_introtemplate ]
C:/Users/Paul/AppData/Local/Temp/_gbsbuild/obj/bg_loadmenu_tilemap.rel
                                          [ bg_loadmenu_tilemap ]
C:/Users/Paul/AppData/Local/Temp/_gbsbuild/obj/bg_loadmenu_tileset.rel
                                          [ bg_loadmenu_tileset ]
C:/Users/Paul/AppData/Local/Temp/_gbsbuild/obj/bg_loadmenu.rel
                                          [ bg_loadmenu ]
C:/Users/Paul/AppData/Local/Temp/_gbsbuild/obj/bg_logo_tilemap.rel
                                          [ bg_logo_tilemap ]
C:/Users/Paul/AppData/Local/Temp/_gbsbuild/obj/bg_logo_tileset.rel
                                          [ bg_logo_tileset ]
C:/Users/Paul/AppData/Local/Temp/_gbsbuild/obj/bg_logo.rel
                                          [ bg_logo ]
C:/Users/Paul/AppData/Local/Temp/_gbsbuild/obj/bg_misc_tilemap_attr.rel
                                          [ bg_misc_tilemap_attr ]
C:/Users/Paul/AppData/Local/Temp/_gbsbuild/obj/bg_misc_tilemap.rel
                                          [ bg_misc_tilemap ]
C:/Users/Paul/AppData/Local/Temp/_gbsbuild/obj/bg_misc_tileset.rel
                                          [ bg_misc_tileset ]
C:/Users/Paul/AppData/Local/Temp/_gbsbuild/obj/bg_misc.rel
                                          [ bg_misc ]
C:/Users/Paul/AppData/Local/Temp/_gbsbuild/obj/bg_room01_tilemap_attr.rel
                                          [ bg_room01_tilemap_attr ]
C:/Users/Paul/AppData/Local/Temp/_gbsbuild/obj/bg_room01_tilemap.rel
                                          [ bg_room01_tilemap ]
C:/Users/Paul/AppData/Local/Temp/_gbsbuild/obj/bg_room01_tileset.rel
                                          [ bg_room01_tileset ]
C:/Users/Paul/AppData/Local/Temp/_gbsbuild/obj/bg_room01.rel
                                          [ bg_room01 ]
C:/Users/Paul/AppData/Local/Temp/_gbsbuild/obj/bg_room02_tilemap_attr.rel
                                          [ bg_room02_tilemap_attr ]
C:/Users/Paul/AppData/Local/Temp/_gbsbuild/obj/bg_room02_tilemap.rel
                                          [ bg_room02_tilemap ]
C:/Users/Paul/AppData/Local/Temp/_gbsbuild/obj/bg_room02_tileset.rel
                                          [ bg_room02_tileset ]
C:/Users/Paul/AppData/Local/Temp/_gbsbuild/obj/bg_room02.rel
                                          [ bg_room02 ]
C:/Users/Paul/AppData/Local/Temp/_gbsbuild/obj/bg_room03_tilemap_attr.rel
                                          [ bg_room03_tilemap_attr ]
C:/Users/Paul/AppData/Local/Temp/_gbsbuild/obj/bg_room03_tilemap.rel
                                          [ bg_room03_tilemap ]
C:/Users/Paul/AppData/Local/Temp/_gbsbuild/obj/bg_room03_tileset.rel
                                          [ bg_room03_tileset ]
C:/Users/Paul/AppData/Local/Temp/_gbsbuild/obj/bg_room03.rel
                                          [ bg_room03 ]
C:/Users/Paul/AppData/Local/Temp/_gbsbuild/obj/bg_room04_tilemap_attr.rel
                                          [ bg_room04_tilemap_attr ]
C:/Users/Paul/AppData/Local/Temp/_gbsbuild/obj/bg_room04_tilemap.rel
                                          [ bg_room04_tilemap ]
C:/Users/Paul/AppData/Local/Temp/_gbsbuild/obj/bg_room04_tileset.rel
                                          [ bg_room04_tileset ]
C:/Users/Paul/AppData/Local/Temp/_gbsbuild/obj/bg_room04.rel
                                          [ bg_room04 ]
C:/Users/Paul/AppData/Local/Temp/_gbsbuild/obj/bg_room05_tilemap_attr.rel
                                          [ bg_room05_tilemap_attr ]
C:/Users/Paul/AppData/Local/Temp/_gbsbuild/obj/bg_room05_tilemap.rel
                                          [ bg_room05_tilemap ]
C:/Users/Paul/AppData/Local/Temp/_gbsbuild/obj/bg_room05_tileset.rel
                                          [ bg_room05_tileset ]
C:/Users/Paul/AppData/Local/Temp/_gbsbuild/obj/bg_room05.rel
                                          [ bg_room05 ]
C:/Users/Paul/AppData/Local/Temp/_gbsbuild/obj/bg_room06_tilemap_attr.rel
                                          [ bg_room06_tilemap_attr ]
C:/Users/Paul/AppData/Local/Temp/_gbsbuild/obj/bg_room06_tilemap.rel
                                          [ bg_room06_tilemap ]
C:/Users/Paul/AppData/Local/Temp/_gbsbuild/obj/bg_room06_tileset.rel
                                          [ bg_room06_tileset ]
C:/Users/Paul/AppData/Local/Temp/_gbsbuild/obj/bg_room06.rel
                                          [ bg_room06 ]
C:/Users/Paul/AppData/Local/Temp/_gbsbuild/obj/bg_room07_tilemap_attr.rel
                                          [ bg_room07_tilemap_attr ]
C:/Users/Paul/AppData/Local/Temp/_gbsbuild/obj/bg_room07_tilemap.rel
                                          [ bg_room07_tilemap ]
C:/Users/Paul/AppData/Local/Temp/_gbsbuild/obj/bg_room07_tileset.rel
                                          [ bg_room07_tileset ]
C:/Users/Paul/AppData/Local/Temp/_gbsbuild/obj/bg_room07.rel
                                          [ bg_room07 ]
C:/Users/Paul/AppData/Local/Temp/_gbsbuild/obj/bg_room08_tilemap_attr.rel
                                          [ bg_room08_tilemap_attr ]
C:/Users/Paul/AppData/Local/Temp/_gbsbuild/obj/bg_room08_tilemap.rel
                                          [ bg_room08_tilemap ]
C:/Users/Paul/AppData/Local/Temp/_gbsbuild/obj/bg_room08_tileset.rel
                                          [ bg_room08_tileset ]
C:/Users/Paul/AppData/Local/Temp/_gbsbuild/obj/bg_room08.rel
                                          [ bg_room08 ]
C:/Users/Paul/AppData/Local/Temp/_gbsbuild/obj/bg_room09_tilemap_attr.rel
                                          [ bg_room09_tilemap_attr ]
C:/Users/Paul/AppData/Local/Temp/_gbsbuild/obj/bg_room09_tilemap.rel
                                          [ bg_room09_tilemap ]
C:/Users/Paul/AppData/Local/Temp/_gbsbuild/obj/bg_room09_tileset.rel
                                          [ bg_room09_tileset ]
C:/Users/Paul/AppData/Local/Temp/_gbsbuild/obj/bg_room09.rel
                                          [ bg_room09 ]
C:/Users/Paul/AppData/Local/Temp/_gbsbuild/obj/bg_room10_tilemap_attr.rel
                                          [ bg_room10_tilemap_attr ]
C:/Users/Paul/AppData/Local/Temp/_gbsbuild/obj/bg_room10_tilemap.rel
                                          [ bg_room10_tilemap ]
C:/Users/Paul/AppData/Local/Temp/_gbsbuild/obj/bg_room10_tileset.rel
                                          [ bg_room10_tileset ]
C:/Users/Paul/AppData/Local/Temp/_gbsbuild/obj/bg_room10.rel
                                          [ bg_room10 ]
C:/Users/Paul/AppData/Local/Temp/_gbsbuild/obj/bg_room11_tilemap_attr.rel
                                          [ bg_room11_tilemap_attr ]
C:/Users/Paul/AppData/Local/Temp/_gbsbuild/obj/bg_room11_tilemap.rel
                                          [ bg_room11_tilemap ]
C:/Users/Paul/AppData/Local/Temp/_gbsbuild/obj/bg_room11_tileset.rel
                                          [ bg_room11_tileset ]
C:/Users/Paul/AppData/Local/Temp/_gbsbuild/obj/bg_room11.rel
                                          [ bg_room11 ]
C:/Users/Paul/AppData/Local/Temp/_gbsbuild/obj/bg_room12_tilemap_attr.rel
                                          [ bg_room12_tilemap_attr ]
C:/Users/Paul/AppData/Local/Temp/_gbsbuild/obj/bg_room12_tilemap.rel
                                          [ bg_room12_tilemap ]
C:/Users/Paul/AppData/Local/Temp/_gbsbuild/obj/bg_room12_tileset.rel
                                          [ bg_room12_tileset ]
C:/Users/Paul/AppData/Local/Temp/_gbsbuild/obj/bg_room12.rel
                                          [ bg_room12 ]
C:/Users/Paul/AppData/Local/Temp/_gbsbuild/obj/bg_room13_tilemap_attr.rel
                                          [ bg_room13_tilemap_attr ]
C:/Users/Paul/AppData/Local/Temp/_gbsbuild/obj/bg_room13_tilemap.rel
                                          [ bg_room13_tilemap ]
C:/Users/Paul/AppData/Local/Temp/_gbsbuild/obj/bg_room13_tileset.rel
                                          [ bg_room13_tileset ]
C:/Users/Paul/AppData/Local/Temp/_gbsbuild/obj/bg_room13.rel
                                          [ bg_room13 ]
C:/Users/Paul/AppData/Local/Temp/_gbsbuild/obj/bg_room14_tilemap_attr.rel
                                          [ bg_room14_tilemap_attr ]
C:/Users/Paul/AppData/Local/Temp/_gbsbuild/obj/bg_room14_tilemap.rel
                                          [ bg_room14_tilemap ]
C:/Users/Paul/AppData/Local/Temp/_gbsbuild/obj/bg_room14_tileset.rel
                                          [ bg_room14_tileset ]
C:/Users/Paul/AppData/Local/Temp/_gbsbuild/obj/bg_room14.rel
                                          [ bg_room14 ]
C:/Users/Paul/AppData/Local/Temp/_gbsbuild/obj/bg_room15_tilemap_attr.rel
                                          [ bg_room15_tilemap_attr ]
C:/Users/Paul/AppData/Local/Temp/_gbsbuild/obj/bg_room15_tilemap.rel
                                          [ bg_room15_tilemap ]
C:/Users/Paul/AppData/Local/Temp/_gbsbuild/obj/bg_room15_tileset.rel
                                          [ bg_room15_tileset ]
C:/Users/Paul/AppData/Local/Temp/_gbsbuild/obj/bg_room15.rel
                                          [ bg_room15 ]
C:/Users/Paul/AppData/Local/Temp/_gbsbuild/obj/bg_room16_tilemap_attr.rel
                                          [ bg_room16_tilemap_attr ]
C:/Users/Paul/AppData/Local/Temp/_gbsbuild/obj/bg_room16_tilemap.rel
                                          [ bg_room16_tilemap ]
C:/Users/Paul/AppData/Local/Temp/_gbsbuild/obj/bg_room16_tileset.rel
                                          [ bg_room16_tileset ]
C:/Users/Paul/AppData/Local/Temp/_gbsbuild/obj/bg_room16.rel
                                          [ bg_room16 ]
C:/Users/Paul/AppData/Local/Temp/_gbsbuild/obj/bg_room17_tilemap.rel
                                          [ bg_room17_tilemap ]
C:/Users/Paul/AppData/Local/Temp/_gbsbuild/obj/bg_room17_tileset.rel
                                          [ bg_room17_tileset ]
C:/Users/Paul/AppData/Local/Temp/_gbsbuild/obj/bg_room17.rel
                                          [ bg_room17 ]
C:/Users/Paul/AppData/Local/Temp/_gbsbuild/obj/bg_room18_tilemap_attr.rel
                                          [ bg_room18_tilemap_attr ]
C:/Users/Paul/AppData/Local/Temp/_gbsbuild/obj/bg_room18_tilemap.rel
                                          [ bg_room18_tilemap ]
C:/Users/Paul/AppData/Local/Temp/_gbsbuild/obj/bg_room18_tileset.rel
                                          [ bg_room18_tileset ]
C:/Users/Paul/AppData/Local/Temp/_gbsbuild/obj/bg_room18.rel
                                          [ bg_room18 ]
C:/Users/Paul/AppData/Local/Temp/_gbsbuild/obj/bg_room19_tilemap_attr.rel
                                          [ bg_room19_tilemap_attr ]
C:/Users/Paul/AppData/Local/Temp/_gbsbuild/obj/bg_room19_tilemap.rel
                                          [ bg_room19_tilemap ]
C:/Users/Paul/AppData/Local/Temp/_gbsbuild/obj/bg_room19_tileset.rel
                                          [ bg_room19_tileset ]
C:/Users/Paul/AppData/Local/Temp/_gbsbuild/obj/bg_room19.rel
                                          [ bg_room19 ]
C:/Users/Paul/AppData/Local/Temp/_gbsbuild/obj/bg_room20_tilemap_attr.rel
                                          [ bg_room20_tilemap_attr ]
C:/Users/Paul/AppData/Local/Temp/_gbsbuild/obj/bg_room20_tilemap.rel
                                          [ bg_room20_tilemap ]
C:/Users/Paul/AppData/Local/Temp/_gbsbuild/obj/bg_room20_tileset.rel
                                          [ bg_room20_tileset ]
C:/Users/Paul/AppData/Local/Temp/_gbsbuild/obj/bg_room20.rel
                                          [ bg_room20 ]
C:/Users/Paul/AppData/Local/Temp/_gbsbuild/obj/bg_room21_tilemap_attr.rel
                                          [ bg_room21_tilemap_attr ]
C:/Users/Paul/AppData/Local/Temp/_gbsbuild/obj/bg_room21_tilemap.rel
                                          [ bg_room21_tilemap ]
C:/Users/Paul/AppData/Local/Temp/_gbsbuild/obj/bg_room21_tileset.rel
                                          [ bg_room21_tileset ]
C:/Users/Paul/AppData/Local/Temp/_gbsbuild/obj/bg_room21.rel
                                          [ bg_room21 ]
C:/Users/Paul/AppData/Local/Temp/_gbsbuild/obj/bg_room22_tilemap.rel
                                          [ bg_room22_tilemap ]
C:/Users/Paul/AppData/Local/Temp/_gbsbuild/obj/bg_room22_tileset.rel
                                          [ bg_room22_tileset ]
C:/Users/Paul/AppData/Local/Temp/_gbsbuild/obj/bg_room22.rel
                                          [ bg_room22 ]
C:/Users/Paul/AppData/Local/Temp/_gbsbuild/obj/bg_room23_tilemap.rel
                                          [ bg_room23_tilemap ]
C:/Users/Paul/AppData/Local/Temp/_gbsbuild/obj/bg_room23_tileset.rel
                                          [ bg_room23_tileset ]
C:/Users/Paul/AppData/Local/Temp/_gbsbuild/obj/bg_room23.rel
                                          [ bg_room23 ]
C:/Users/Paul/AppData/Local/Temp/_gbsbuild/obj/bg_room24_tilemap.rel
                                          [ bg_room24_tilemap ]
C:/Users/Paul/AppData/Local/Temp/_gbsbuild/obj/bg_room24_tileset.rel
                                          [ bg_room24_tileset ]
C:/Users/Paul/AppData/Local/Temp/_gbsbuild/obj/bg_room24.rel
                                          [ bg_room24 ]
C:/Users/Paul/AppData/Local/Temp/_gbsbuild/obj/bg_room25_tilemap_attr.rel
                                          [ bg_room25_tilemap_attr ]
C:/Users/Paul/AppData/Local/Temp/_gbsbuild/obj/bg_room25_tilemap.rel
                                          [ bg_room25_tilemap ]
C:/Users/Paul/AppData/Local/Temp/_gbsbuild/obj/bg_room25_tileset.rel
                                          [ bg_room25_tileset ]
C:/Users/Paul/AppData/Local/Temp/_gbsbuild/obj/bg_room25.rel
                                          [ bg_room25 ]
C:/Users/Paul/AppData/Local/Temp/_gbsbuild/obj/bg_water_tilemap.rel
                                          [ bg_water_tilemap ]
C:/Users/Paul/AppData/Local/Temp/_gbsbuild/obj/bg_water_tileset.rel
                                          [ bg_water_tileset ]
C:/Users/Paul/AppData/Local/Temp/_gbsbuild/obj/bg_water.rel
                                          [ bg_water ]
C:/Users/Paul/AppData/Local/Temp/_gbsbuild/obj/cursor_image.rel
                                          [ cursor_image ]
C:/Users/Paul/AppData/Local/Temp/_gbsbuild/obj/font_determination_color_va.rel
                                          [ font_determination_color_va ]
C:/Users/Paul/AppData/Local/Temp/_gbsbuild/obj/font_determination_color.rel
                                          [ font_determination_color ]
C:/Users/Paul/AppData/Local/Temp/_gbsbuild/obj/font_determination.rel
                                          [ font_determination ]
C:/Users/Paul/AppData/Local/Temp/_gbsbuild/obj/font_inverted_varwid.rel
                                          [ font_inverted_varwid ]
C:/Users/Paul/AppData/Local/Temp/_gbsbuild/obj/font_miniinvert.rel
                                          [ font_miniinvert ]
C:/Users/Paul/AppData/Local/Temp/_gbsbuild/obj/frame_image.rel
                                          [ frame_image ]
C:/Users/Paul/AppData/Local/Temp/_gbsbuild/obj/game_signature.rel
                                          [ game_signature ]
C:/Users/Paul/AppData/Local/Temp/_gbsbuild/obj/song_once_upon_a_time_Data.rel
                                          [ song_once_upon_a_time_Data ]
C:/Users/Paul/AppData/Local/Temp/_gbsbuild/obj/song_ruins_Data.rel
                                          [ song_ruins_Data ]
C:/Users/Paul/AppData/Local/Temp/_gbsbuild/obj/song_start_menu_Data.rel
                                          [ song_start_menu_Data ]
C:/Users/Paul/AppData/Local/Temp/_gbsbuild/obj/song_your_best_friend_Data.rel
                                          [ song_your_best_friend_Data ]
C:/Users/Paul/AppData/Local/Temp/_gbsbuild/obj/palette_0.rel
                                          [ palette_0 ]
C:/Users/Paul/AppData/Local/Temp/_gbsbuild/obj/palette_1.rel
                                          [ palette_1 ]
C:/Users/Paul/AppData/Local/Temp/_gbsbuild/obj/palette_10.rel
                                          [ palette_10 ]
C:/Users/Paul/AppData/Local/Temp/_gbsbuild/obj/palette_11.rel
                                          [ palette_11 ]
C:/Users/Paul/AppData/Local/Temp/_gbsbuild/obj/palette_12.rel
                                          [ palette_12 ]
C:/Users/Paul/AppData/Local/Temp/_gbsbuild/obj/palette_13.rel
                                          [ palette_13 ]
C:/Users/Paul/AppData/Local/Temp/_gbsbuild/obj/palette_14.rel
                                          [ palette_14 ]
C:/Users/Paul/AppData/Local/Temp/_gbsbuild/obj/palette_15.rel
                                          [ palette_15 ]
C:/Users/Paul/AppData/Local/Temp/_gbsbuild/obj/palette_16.rel
                                          [ palette_16 ]
C:/Users/Paul/AppData/Local/Temp/_gbsbuild/obj/palette_17.rel
                                          [ palette_17 ]
C:/Users/Paul/AppData/Local/Temp/_gbsbuild/obj/palette_18.rel
                                          [ palette_18 ]
C:/Users/Paul/AppData/Local/Temp/_gbsbuild/obj/palette_19.rel
                                          [ palette_19 ]
C:/Users/Paul/AppData/Local/Temp/_gbsbuild/obj/palette_2.rel
                                          [ palette_2 ]
C:/Users/Paul/AppData/Local/Temp/_gbsbuild/obj/palette_20.rel
                                          [ palette_20 ]
C:/Users/Paul/AppData/Local/Temp/_gbsbuild/obj/palette_21.rel
                                          [ palette_21 ]
C:/Users/Paul/AppData/Local/Temp/_gbsbuild/obj/palette_22.rel
                                          [ palette_22 ]
C:/Users/Paul/AppData/Local/Temp/_gbsbuild/obj/palette_23.rel
                                          [ palette_23 ]
C:/Users/Paul/AppData/Local/Temp/_gbsbuild/obj/palette_24.rel
                                          [ palette_24 ]
C:/Users/Paul/AppData/Local/Temp/_gbsbuild/obj/palette_25.rel
                                          [ palette_25 ]
C:/Users/Paul/AppData/Local/Temp/_gbsbuild/obj/palette_26.rel
                                          [ palette_26 ]
C:/Users/Paul/AppData/Local/Temp/_gbsbuild/obj/palette_27.rel
                                          [ palette_27 ]
C:/Users/Paul/AppData/Local/Temp/_gbsbuild/obj/palette_3.rel
                                          [ palette_3 ]
C:/Users/Paul/AppData/Local/Temp/_gbsbuild/obj/palette_4.rel
                                          [ palette_4 ]
C:/Users/Paul/AppData/Local/Temp/_gbsbuild/obj/palette_5.rel
                                          [ palette_5 ]
C:/Users/Paul/AppData/Local/Temp/_gbsbuild/obj/palette_6.rel
                                          [ palette_6 ]
C:/Users/Paul/AppData/Local/Temp/_gbsbuild/obj/palette_7.rel
                                          [ palette_7 ]
C:/Users/Paul/AppData/Local/Temp/_gbsbuild/obj/palette_8.rel
                                          [ palette_8 ]
C:/Users/Paul/AppData/Local/Temp/_gbsbuild/obj/palette_9.rel
                                          [ palette_9 ]
C:/Users/Paul/AppData/Local/Temp/_gbsbuild/obj/scene_0_actors.rel
                                          [ scene_0_actors ]
C:/Users/Paul/AppData/Local/Temp/_gbsbuild/obj/scene_0_collisions.rel
                                          [ scene_0_collisions ]
C:/Users/Paul/AppData/Local/Temp/_gbsbuild/obj/scene_0_init.rel
                                          [ scene_0_init ]
C:/Users/Paul/AppData/Local/Temp/_gbsbuild/obj/scene_0_p_hit1.rel
                                          [ scene_0_p_hit1 ]
C:/Users/Paul/AppData/Local/Temp/_gbsbuild/obj/scene_0_projectiles.rel
                                          [ scene_0_projectiles ]
C:/Users/Paul/AppData/Local/Temp/_gbsbuild/obj/scene_0_sprites.rel
                                          [ scene_0_sprites ]
C:/Users/Paul/AppData/Local/Temp/_gbsbuild/obj/scene_0.rel
                                          [ scene_0 ]
C:/Users/Paul/AppData/Local/Temp/_gbsbuild/obj/scene_40_collisions.rel
                                          [ scene_40_collisions ]
C:/Users/Paul/AppData/Local/Temp/_gbsbuild/obj/scene_40_init.rel
                                          [ scene_40_init ]
C:/Users/Paul/AppData/Local/Temp/_gbsbuild/obj/scene_40.rel
                                          [ scene_40 ]
C:/Users/Paul/AppData/Local/Temp/_gbsbuild/obj/scene_41_collisions.rel
                                          [ scene_41_collisions ]
C:/Users/Paul/AppData/Local/Temp/_gbsbuild/obj/scene_41_init.rel
                                          [ scene_41_init ]
C:/Users/Paul/AppData/Local/Temp/_gbsbuild/obj/scene_41.rel
                                          [ scene_41 ]
C:/Users/Paul/AppData/Local/Temp/_gbsbuild/obj/scene_battle_test_1_actors.rel
                                          [ scene_battle_test_1_actors ]
C:/Users/Paul/AppData/Local/Temp/_gbsbuild/obj/scene_battle_test_1_collisions.rel
                                          [ scene_battle_test_1_collisions ]
C:/Users/Paul/AppData/Local/Temp/_gbsbuild/obj/scene_battle_test_1_init.rel
                                          [ scene_battle_test_1_init ]
C:/Users/Paul/AppData/Local/Temp/_gbsbuild/obj/scene_battle_test_1_sprites.rel
                                          [ scene_battle_test_1_sprites ]
C:/Users/Paul/AppData/Local/Temp/_gbsbuild/obj/scene_battle_test_1.rel
                                          [ scene_battle_test_1 ]
C:/Users/Paul/AppData/Local/Temp/_gbsbuild/obj/scene_battle_test_2_actors.rel
                                          [ scene_battle_test_2_actors ]
C:/Users/Paul/AppData/Local/Temp/_gbsbuild/obj/scene_battle_test_2_collisions.rel
                                          [ scene_battle_test_2_collisions ]
C:/Users/Paul/AppData/Local/Temp/_gbsbuild/obj/scene_battle_test_2_init.rel
                                          [ scene_battle_test_2_init ]
C:/Users/Paul/AppData/Local/Temp/_gbsbuild/obj/scene_battle_test_2_p_hit1.rel
                                          [ scene_battle_test_2_p_hit1 ]
C:/Users/Paul/AppData/Local/Temp/_gbsbuild/obj/scene_battle_test_2_projectiles.rel
                                          [ scene_battle_test_2_projectiles ]
C:/Users/Paul/AppData/Local/Temp/_gbsbuild/obj/scene_battle_test_2_sprites.rel
                                          [ scene_battle_test_2_sprites ]
C:/Users/Paul/AppData/Local/Temp/_gbsbuild/obj/scene_battle_test_2.rel
                                          [ scene_battle_test_2 ]
C:/Users/Paul/AppData/Local/Temp/_gbsbuild/obj/scene_debug_collisions.rel
                                          [ scene_debug_collisions ]
C:/Users/Paul/AppData/Local/Temp/_gbsbuild/obj/scene_debug_init.rel
                                          [ scene_debug_init ]
C:/Users/Paul/AppData/Local/Temp/_gbsbuild/obj/scene_debug.rel
                                          [ scene_debug ]
C:/Users/Paul/AppData/Local/Temp/_gbsbuild/obj/scene_gameover_collisions.rel
                                          [ scene_gameover_collisions ]
C:/Users/Paul/AppData/Local/Temp/_gbsbuild/obj/scene_gameover_init.rel
                                          [ scene_gameover_init ]
C:/Users/Paul/AppData/Local/Temp/_gbsbuild/obj/scene_gameover.rel
                                          [ scene_gameover ]
C:/Users/Paul/AppData/Local/Temp/_gbsbuild/obj/scene_intro_01_collisions.rel
                                          [ scene_intro_01_collisions ]
C:/Users/Paul/AppData/Local/Temp/_gbsbuild/obj/scene_intro_01_init.rel
                                          [ scene_intro_01_init ]
C:/Users/Paul/AppData/Local/Temp/_gbsbuild/obj/scene_intro_01.rel
                                          [ scene_intro_01 ]
C:/Users/Paul/AppData/Local/Temp/_gbsbuild/obj/scene_intro_02_collisions.rel
                                          [ scene_intro_02_collisions ]
C:/Users/Paul/AppData/Local/Temp/_gbsbuild/obj/scene_intro_02_init.rel
                                          [ scene_intro_02_init ]
C:/Users/Paul/AppData/Local/Temp/_gbsbuild/obj/scene_intro_02.rel
                                          [ scene_intro_02 ]
C:/Users/Paul/AppData/Local/Temp/_gbsbuild/obj/scene_intro_03_collisions.rel
                                          [ scene_intro_03_collisions ]
C:/Users/Paul/AppData/Local/Temp/_gbsbuild/obj/scene_intro_03_init.rel
                                          [ scene_intro_03_init ]
C:/Users/Paul/AppData/Local/Temp/_gbsbuild/obj/scene_intro_03.rel
                                          [ scene_intro_03 ]
C:/Users/Paul/AppData/Local/Temp/_gbsbuild/obj/scene_intro_04_collisions.rel
                                          [ scene_intro_04_collisions ]
C:/Users/Paul/AppData/Local/Temp/_gbsbuild/obj/scene_intro_04_init.rel
                                          [ scene_intro_04_init ]
C:/Users/Paul/AppData/Local/Temp/_gbsbuild/obj/scene_intro_04.rel
                                          [ scene_intro_04 ]
C:/Users/Paul/AppData/Local/Temp/_gbsbuild/obj/scene_intro_05_collisions.rel
                                          [ scene_intro_05_collisions ]
C:/Users/Paul/AppData/Local/Temp/_gbsbuild/obj/scene_intro_05_init.rel
                                          [ scene_intro_05_init ]
C:/Users/Paul/AppData/Local/Temp/_gbsbuild/obj/scene_intro_05.rel
                                          [ scene_intro_05 ]
C:/Users/Paul/AppData/Local/Temp/_gbsbuild/obj/scene_intro_06_collisions.rel
                                          [ scene_intro_06_collisions ]
C:/Users/Paul/AppData/Local/Temp/_gbsbuild/obj/scene_intro_06_init.rel
                                          [ scene_intro_06_init ]
C:/Users/Paul/AppData/Local/Temp/_gbsbuild/obj/scene_intro_06.rel
                                          [ scene_intro_06 ]
C:/Users/Paul/AppData/Local/Temp/_gbsbuild/obj/scene_intro_07_collisions.rel
                                          [ scene_intro_07_collisions ]
C:/Users/Paul/AppData/Local/Temp/_gbsbuild/obj/scene_intro_07_init.rel
                                          [ scene_intro_07_init ]
C:/Users/Paul/AppData/Local/Temp/_gbsbuild/obj/scene_intro_07.rel
                                          [ scene_intro_07 ]
C:/Users/Paul/AppData/Local/Temp/_gbsbuild/obj/scene_logo_collisions.rel
                                          [ scene_logo_collisions ]
C:/Users/Paul/AppData/Local/Temp/_gbsbuild/obj/scene_logo_init.rel
                                          [ scene_logo_init ]
C:/Users/Paul/AppData/Local/Temp/_gbsbuild/obj/scene_logo.rel
                                          [ scene_logo ]
C:/Users/Paul/AppData/Local/Temp/_gbsbuild/obj/scene_menu_1_collisions.rel
                                          [ scene_menu_1_collisions ]
C:/Users/Paul/AppData/Local/Temp/_gbsbuild/obj/scene_menu_1_init.rel
                                          [ scene_menu_1_init ]
C:/Users/Paul/AppData/Local/Temp/_gbsbuild/obj/scene_menu_1.rel
                                          [ scene_menu_1 ]
C:/Users/Paul/AppData/Local/Temp/_gbsbuild/obj/scene_room_01_collisions.rel
                                          [ scene_room_01_collisions ]
C:/Users/Paul/AppData/Local/Temp/_gbsbuild/obj/scene_room_01_init.rel
                                          [ scene_room_01_init ]
C:/Users/Paul/AppData/Local/Temp/_gbsbuild/obj/scene_room_01_triggers.rel
                                          [ scene_room_01_triggers ]
C:/Users/Paul/AppData/Local/Temp/_gbsbuild/obj/scene_room_01.rel
                                          [ scene_room_01 ]
C:/Users/Paul/AppData/Local/Temp/_gbsbuild/obj/scene_room_02_actors.rel
                                          [ scene_room_02_actors ]
C:/Users/Paul/AppData/Local/Temp/_gbsbuild/obj/scene_room_02_collisions.rel
                                          [ scene_room_02_collisions ]
C:/Users/Paul/AppData/Local/Temp/_gbsbuild/obj/scene_room_02_init.rel
                                          [ scene_room_02_init ]
C:/Users/Paul/AppData/Local/Temp/_gbsbuild/obj/scene_room_02_sprites.rel
                                          [ scene_room_02_sprites ]
C:/Users/Paul/AppData/Local/Temp/_gbsbuild/obj/scene_room_02_triggers.rel
                                          [ scene_room_02_triggers ]
C:/Users/Paul/AppData/Local/Temp/_gbsbuild/obj/scene_room_02.rel
                                          [ scene_room_02 ]
C:/Users/Paul/AppData/Local/Temp/_gbsbuild/obj/scene_room_03_actors.rel
                                          [ scene_room_03_actors ]
C:/Users/Paul/AppData/Local/Temp/_gbsbuild/obj/scene_room_03_collisions.rel
                                          [ scene_room_03_collisions ]
C:/Users/Paul/AppData/Local/Temp/_gbsbuild/obj/scene_room_03_init.rel
                                          [ scene_room_03_init ]
C:/Users/Paul/AppData/Local/Temp/_gbsbuild/obj/scene_room_03_sprites.rel
                                          [ scene_room_03_sprites ]
C:/Users/Paul/AppData/Local/Temp/_gbsbuild/obj/scene_room_03_triggers.rel
                                          [ scene_room_03_triggers ]
C:/Users/Paul/AppData/Local/Temp/_gbsbuild/obj/scene_room_03.rel
                                          [ scene_room_03 ]
C:/Users/Paul/AppData/Local/Temp/_gbsbuild/obj/scene_room_04_actors.rel
                                          [ scene_room_04_actors ]
C:/Users/Paul/AppData/Local/Temp/_gbsbuild/obj/scene_room_04_collisions.rel
                                          [ scene_room_04_collisions ]
C:/Users/Paul/AppData/Local/Temp/_gbsbuild/obj/scene_room_04_init.rel
                                          [ scene_room_04_init ]
C:/Users/Paul/AppData/Local/Temp/_gbsbuild/obj/scene_room_04_sprites.rel
                                          [ scene_room_04_sprites ]
C:/Users/Paul/AppData/Local/Temp/_gbsbuild/obj/scene_room_04_triggers.rel
                                          [ scene_room_04_triggers ]
C:/Users/Paul/AppData/Local/Temp/_gbsbuild/obj/scene_room_04.rel
                                          [ scene_room_04 ]
C:/Users/Paul/AppData/Local/Temp/_gbsbuild/obj/scene_room_05_actors.rel
                                          [ scene_room_05_actors ]
C:/Users/Paul/AppData/Local/Temp/_gbsbuild/obj/scene_room_05_collisions.rel
                                          [ scene_room_05_collisions ]
C:/Users/Paul/AppData/Local/Temp/_gbsbuild/obj/scene_room_05_init.rel
                                          [ scene_room_05_init ]
C:/Users/Paul/AppData/Local/Temp/_gbsbuild/obj/scene_room_05_sprites.rel
                                          [ scene_room_05_sprites ]
C:/Users/Paul/AppData/Local/Temp/_gbsbuild/obj/scene_room_05_triggers.rel
                                          [ scene_room_05_triggers ]
C:/Users/Paul/AppData/Local/Temp/_gbsbuild/obj/scene_room_05.rel
                                          [ scene_room_05 ]
C:/Users/Paul/AppData/Local/Temp/_gbsbuild/obj/scene_room_06_actors.rel
                                          [ scene_room_06_actors ]
C:/Users/Paul/AppData/Local/Temp/_gbsbuild/obj/scene_room_06_collisions.rel
                                          [ scene_room_06_collisions ]
C:/Users/Paul/AppData/Local/Temp/_gbsbuild/obj/scene_room_06_init.rel
                                          [ scene_room_06_init ]
C:/Users/Paul/AppData/Local/Temp/_gbsbuild/obj/scene_room_06_sprites.rel
                                          [ scene_room_06_sprites ]
C:/Users/Paul/AppData/Local/Temp/_gbsbuild/obj/scene_room_06_triggers.rel
                                          [ scene_room_06_triggers ]
C:/Users/Paul/AppData/Local/Temp/_gbsbuild/obj/scene_room_06.rel
                                          [ scene_room_06 ]
C:/Users/Paul/AppData/Local/Temp/_gbsbuild/obj/scene_room_07_actors.rel
                                          [ scene_room_07_actors ]
C:/Users/Paul/AppData/Local/Temp/_gbsbuild/obj/scene_room_07_collisions.rel
                                          [ scene_room_07_collisions ]
C:/Users/Paul/AppData/Local/Temp/_gbsbuild/obj/scene_room_07_init.rel
                                          [ scene_room_07_init ]
C:/Users/Paul/AppData/Local/Temp/_gbsbuild/obj/scene_room_07_sprites.rel
                                          [ scene_room_07_sprites ]
C:/Users/Paul/AppData/Local/Temp/_gbsbuild/obj/scene_room_07_triggers.rel
                                          [ scene_room_07_triggers ]
C:/Users/Paul/AppData/Local/Temp/_gbsbuild/obj/scene_room_07.rel
                                          [ scene_room_07 ]
C:/Users/Paul/AppData/Local/Temp/_gbsbuild/obj/scene_room_08_collisions.rel
                                          [ scene_room_08_collisions ]
C:/Users/Paul/AppData/Local/Temp/_gbsbuild/obj/scene_room_08_init.rel
                                          [ scene_room_08_init ]
C:/Users/Paul/AppData/Local/Temp/_gbsbuild/obj/scene_room_08_triggers.rel
                                          [ scene_room_08_triggers ]
C:/Users/Paul/AppData/Local/Temp/_gbsbuild/obj/scene_room_08.rel
                                          [ scene_room_08 ]
C:/Users/Paul/AppData/Local/Temp/_gbsbuild/obj/scene_room_09_actors.rel
                                          [ scene_room_09_actors ]
C:/Users/Paul/AppData/Local/Temp/_gbsbuild/obj/scene_room_09_collisions.rel
                                          [ scene_room_09_collisions ]
C:/Users/Paul/AppData/Local/Temp/_gbsbuild/obj/scene_room_09_init.rel
                                          [ scene_room_09_init ]
C:/Users/Paul/AppData/Local/Temp/_gbsbuild/obj/scene_room_09_sprites.rel
                                          [ scene_room_09_sprites ]
C:/Users/Paul/AppData/Local/Temp/_gbsbuild/obj/scene_room_09_triggers.rel
                                          [ scene_room_09_triggers ]
C:/Users/Paul/AppData/Local/Temp/_gbsbuild/obj/scene_room_09.rel
                                          [ scene_room_09 ]
C:/Users/Paul/AppData/Local/Temp/_gbsbuild/obj/scene_room_10_actors.rel
                                          [ scene_room_10_actors ]
C:/Users/Paul/AppData/Local/Temp/_gbsbuild/obj/scene_room_10_collisions.rel
                                          [ scene_room_10_collisions ]
C:/Users/Paul/AppData/Local/Temp/_gbsbuild/obj/scene_room_10_init.rel
                                          [ scene_room_10_init ]
C:/Users/Paul/AppData/Local/Temp/_gbsbuild/obj/scene_room_10_sprites.rel
                                          [ scene_room_10_sprites ]
C:/Users/Paul/AppData/Local/Temp/_gbsbuild/obj/scene_room_10_triggers.rel
                                          [ scene_room_10_triggers ]
C:/Users/Paul/AppData/Local/Temp/_gbsbuild/obj/scene_room_10.rel
                                          [ scene_room_10 ]
C:/Users/Paul/AppData/Local/Temp/_gbsbuild/obj/scene_room_11_collisions.rel
                                          [ scene_room_11_collisions ]
C:/Users/Paul/AppData/Local/Temp/_gbsbuild/obj/scene_room_11_init.rel
                                          [ scene_room_11_init ]
C:/Users/Paul/AppData/Local/Temp/_gbsbuild/obj/scene_room_11_triggers.rel
                                          [ scene_room_11_triggers ]
C:/Users/Paul/AppData/Local/Temp/_gbsbuild/obj/scene_room_11.rel
                                          [ scene_room_11 ]
C:/Users/Paul/AppData/Local/Temp/_gbsbuild/obj/scene_room_12_actors.rel
                                          [ scene_room_12_actors ]
C:/Users/Paul/AppData/Local/Temp/_gbsbuild/obj/scene_room_12_collisions.rel
                                          [ scene_room_12_collisions ]
C:/Users/Paul/AppData/Local/Temp/_gbsbuild/obj/scene_room_12_init.rel
                                          [ scene_room_12_init ]
C:/Users/Paul/AppData/Local/Temp/_gbsbuild/obj/scene_room_12_sprites.rel
                                          [ scene_room_12_sprites ]
C:/Users/Paul/AppData/Local/Temp/_gbsbuild/obj/scene_room_12_triggers.rel
                                          [ scene_room_12_triggers ]
C:/Users/Paul/AppData/Local/Temp/_gbsbuild/obj/scene_room_12.rel
                                          [ scene_room_12 ]
C:/Users/Paul/AppData/Local/Temp/_gbsbuild/obj/scene_room_13_actors.rel
                                          [ scene_room_13_actors ]
C:/Users/Paul/AppData/Local/Temp/_gbsbuild/obj/scene_room_13_collisions.rel
                                          [ scene_room_13_collisions ]
C:/Users/Paul/AppData/Local/Temp/_gbsbuild/obj/scene_room_13_init.rel
                                          [ scene_room_13_init ]
C:/Users/Paul/AppData/Local/Temp/_gbsbuild/obj/scene_room_13_sprites.rel
                                          [ scene_room_13_sprites ]
C:/Users/Paul/AppData/Local/Temp/_gbsbuild/obj/scene_room_13_triggers.rel
                                          [ scene_room_13_triggers ]
C:/Users/Paul/AppData/Local/Temp/_gbsbuild/obj/scene_room_13.rel
                                          [ scene_room_13 ]
C:/Users/Paul/AppData/Local/Temp/_gbsbuild/obj/scene_room_14_actors.rel
                                          [ scene_room_14_actors ]
C:/Users/Paul/AppData/Local/Temp/_gbsbuild/obj/scene_room_14_collisions.rel
                                          [ scene_room_14_collisions ]
C:/Users/Paul/AppData/Local/Temp/_gbsbuild/obj/scene_room_14_init.rel
                                          [ scene_room_14_init ]
C:/Users/Paul/AppData/Local/Temp/_gbsbuild/obj/scene_room_14_sprites.rel
                                          [ scene_room_14_sprites ]
C:/Users/Paul/AppData/Local/Temp/_gbsbuild/obj/scene_room_14_triggers.rel
                                          [ scene_room_14_triggers ]
C:/Users/Paul/AppData/Local/Temp/_gbsbuild/obj/scene_room_14.rel
                                          [ scene_room_14 ]
C:/Users/Paul/AppData/Local/Temp/_gbsbuild/obj/scene_room_15_collisions.rel
                                          [ scene_room_15_collisions ]
C:/Users/Paul/AppData/Local/Temp/_gbsbuild/obj/scene_room_15_init.rel
                                          [ scene_room_15_init ]
C:/Users/Paul/AppData/Local/Temp/_gbsbuild/obj/scene_room_15_triggers.rel
                                          [ scene_room_15_triggers ]
C:/Users/Paul/AppData/Local/Temp/_gbsbuild/obj/scene_room_15.rel
                                          [ scene_room_15 ]
C:/Users/Paul/AppData/Local/Temp/_gbsbuild/obj/scene_room_16_actors.rel
                                          [ scene_room_16_actors ]
C:/Users/Paul/AppData/Local/Temp/_gbsbuild/obj/scene_room_16_collisions.rel
                                          [ scene_room_16_collisions ]
C:/Users/Paul/AppData/Local/Temp/_gbsbuild/obj/scene_room_16_init.rel
                                          [ scene_room_16_init ]
C:/Users/Paul/AppData/Local/Temp/_gbsbuild/obj/scene_room_16_sprites.rel
                                          [ scene_room_16_sprites ]
C:/Users/Paul/AppData/Local/Temp/_gbsbuild/obj/scene_room_16_triggers.rel
                                          [ scene_room_16_triggers ]
C:/Users/Paul/AppData/Local/Temp/_gbsbuild/obj/scene_room_16.rel
                                          [ scene_room_16 ]
C:/Users/Paul/AppData/Local/Temp/_gbsbuild/obj/scene_room_17_collisions.rel
                                          [ scene_room_17_collisions ]
C:/Users/Paul/AppData/Local/Temp/_gbsbuild/obj/scene_room_17_init.rel
                                          [ scene_room_17_init ]
C:/Users/Paul/AppData/Local/Temp/_gbsbuild/obj/scene_room_17_triggers.rel
                                          [ scene_room_17_triggers ]
C:/Users/Paul/AppData/Local/Temp/_gbsbuild/obj/scene_room_17.rel
                                          [ scene_room_17 ]
C:/Users/Paul/AppData/Local/Temp/_gbsbuild/obj/scene_room_18_collisions.rel
                                          [ scene_room_18_collisions ]
C:/Users/Paul/AppData/Local/Temp/_gbsbuild/obj/scene_room_18_init.rel
                                          [ scene_room_18_init ]
C:/Users/Paul/AppData/Local/Temp/_gbsbuild/obj/scene_room_18_triggers.rel
                                          [ scene_room_18_triggers ]
C:/Users/Paul/AppData/Local/Temp/_gbsbuild/obj/scene_room_18.rel
                                          [ scene_room_18 ]
C:/Users/Paul/AppData/Local/Temp/_gbsbuild/obj/scene_room_19_collisions.rel
                                          [ scene_room_19_collisions ]
C:/Users/Paul/AppData/Local/Temp/_gbsbuild/obj/scene_room_19_init.rel
                                          [ scene_room_19_init ]
C:/Users/Paul/AppData/Local/Temp/_gbsbuild/obj/scene_room_19_triggers.rel
                                          [ scene_room_19_triggers ]
C:/Users/Paul/AppData/Local/Temp/_gbsbuild/obj/scene_room_19.rel
                                          [ scene_room_19 ]
C:/Users/Paul/AppData/Local/Temp/_gbsbuild/obj/scene_room_20_collisions.rel
                                          [ scene_room_20_collisions ]
C:/Users/Paul/AppData/Local/Temp/_gbsbuild/obj/scene_room_20_init.rel
                                          [ scene_room_20_init ]
C:/Users/Paul/AppData/Local/Temp/_gbsbuild/obj/scene_room_20.rel
                                          [ scene_room_20 ]
C:/Users/Paul/AppData/Local/Temp/_gbsbuild/obj/scene_room_21_collisions.rel
                                          [ scene_room_21_collisions ]
C:/Users/Paul/AppData/Local/Temp/_gbsbuild/obj/scene_room_21_init.rel
                                          [ scene_room_21_init ]
C:/Users/Paul/AppData/Local/Temp/_gbsbuild/obj/scene_room_21.rel
                                          [ scene_room_21 ]
C:/Users/Paul/AppData/Local/Temp/_gbsbuild/obj/scene_room_22_collisions.rel
                                          [ scene_room_22_collisions ]
C:/Users/Paul/AppData/Local/Temp/_gbsbuild/obj/scene_room_22_init.rel
                                          [ scene_room_22_init ]
C:/Users/Paul/AppData/Local/Temp/_gbsbuild/obj/scene_room_22.rel
                                          [ scene_room_22 ]
C:/Users/Paul/AppData/Local/Temp/_gbsbuild/obj/scene_room_23_collisions.rel
                                          [ scene_room_23_collisions ]
C:/Users/Paul/AppData/Local/Temp/_gbsbuild/obj/scene_room_23_init.rel
                                          [ scene_room_23_init ]
C:/Users/Paul/AppData/Local/Temp/_gbsbuild/obj/scene_room_23.rel
                                          [ scene_room_23 ]
C:/Users/Paul/AppData/Local/Temp/_gbsbuild/obj/scene_room_24_collisions.rel
                                          [ scene_room_24_collisions ]
C:/Users/Paul/AppData/Local/Temp/_gbsbuild/obj/scene_room_24_init.rel
                                          [ scene_room_24_init ]
C:/Users/Paul/AppData/Local/Temp/_gbsbuild/obj/scene_room_24.rel
                                          [ scene_room_24 ]
C:/Users/Paul/AppData/Local/Temp/_gbsbuild/obj/scene_room_25_collisions.rel
                                          [ scene_room_25_collisions ]
C:/Users/Paul/AppData/Local/Temp/_gbsbuild/obj/scene_room_25_init.rel
                                          [ scene_room_25_init ]
C:/Users/Paul/AppData/Local/Temp/_gbsbuild/obj/scene_room_25.rel
                                          [ scene_room_25 ]
C:/Users/Paul/AppData/Local/Temp/_gbsbuild/obj/script_10.rel
                                          [ script_10 ]
C:/Users/Paul/AppData/Local/Temp/_gbsbuild/obj/script_12.rel
                                          [ script_12 ]
C:/Users/Paul/AppData/Local/Temp/_gbsbuild/obj/script_13.rel
                                          [ script_13 ]
C:/Users/Paul/AppData/Local/Temp/_gbsbuild/obj/script_7.rel
                                          [ script_7 ]
C:/Users/Paul/AppData/Local/Temp/_gbsbuild/obj/script_8.rel
                                          [ script_8 ]
C:/Users/Paul/AppData/Local/Temp/_gbsbuild/obj/script_9.rel
                                          [ script_9 ]
C:/Users/Paul/AppData/Local/Temp/_gbsbuild/obj/script_add_menu_to_overworl.rel
                                          [ script_add_menu_to_overworl ]
C:/Users/Paul/AppData/Local/Temp/_gbsbuild/obj/script_engine_init.rel
                                          [  ]
C:/Users/Paul/AppData/Local/Temp/_gbsbuild/obj/script_enter_battle.rel
                                          [ script_enter_battle ]
C:/Users/Paul/AppData/Local/Temp/_gbsbuild/obj/script_input_0.rel
                                          [ script_input_0 ]
C:/Users/Paul/AppData/Local/Temp/_gbsbuild/obj/script_input_1.rel
                                          [ script_input_1 ]
C:/Users/Paul/AppData/Local/Temp/_gbsbuild/obj/script_input_2.rel
                                          [ script_input_2 ]
C:/Users/Paul/AppData/Local/Temp/_gbsbuild/obj/script_input_3.rel
                                          [ script_input_3 ]
C:/Users/Paul/AppData/Local/Temp/_gbsbuild/obj/script_input_4.rel
                                          [ script_input_4 ]
C:/Users/Paul/AppData/Local/Temp/_gbsbuild/obj/script_input_5.rel
                                          [ script_input_5 ]
C:/Users/Paul/AppData/Local/Temp/_gbsbuild/obj/script_input_6.rel
                                          [ script_input_6 ]
C:/Users/Paul/AppData/Local/Temp/_gbsbuild/obj/script_input_7.rel
                                          [ script_input_7 ]
C:/Users/Paul/AppData/Local/Temp/_gbsbuild/obj/sound_voices_sav.rel
                                          [ sound_voices_sav ]
C:/Users/Paul/AppData/Local/Temp/_gbsbuild/obj/sprite_battlecursor_tileset.rel
                                          [ sprite_battlecursor_tileset ]
C:/Users/Paul/AppData/Local/Temp/_gbsbuild/obj/sprite_battlecursor.rel
                                          [ sprite_battlecursor ]
C:/Users/Paul/AppData/Local/Temp/_gbsbuild/obj/sprite_battleenemyparts_tileset.rel
                                          [ sprite_battleenemyparts_tileset ]
C:/Users/Paul/AppData/Local/Temp/_gbsbuild/obj/sprite_battleenemyparts.rel
                                          [ sprite_battleenemyparts ]
C:/Users/Paul/AppData/Local/Temp/_gbsbuild/obj/sprite_battleui_tileset.rel
                                          [ sprite_battleui_tileset ]
C:/Users/Paul/AppData/Local/Temp/_gbsbuild/obj/sprite_battleui.rel
                                          [ sprite_battleui ]
C:/Users/Paul/AppData/Local/Temp/_gbsbuild/obj/sprite_bigdoor_v3_tileset.rel
                                          [ sprite_bigdoor_v3_tileset ]
C:/Users/Paul/AppData/Local/Temp/_gbsbuild/obj/sprite_bigdoor_v3.rel
                                          [ sprite_bigdoor_v3 ]
C:/Users/Paul/AppData/Local/Temp/_gbsbuild/obj/sprite_blooky_tileset.rel
                                          [ sprite_blooky_tileset ]
C:/Users/Paul/AppData/Local/Temp/_gbsbuild/obj/sprite_blooky.rel
                                          [ sprite_blooky ]
C:/Users/Paul/AppData/Local/Temp/_gbsbuild/obj/sprite_candy_tileset.rel
                                          [ sprite_candy_tileset ]
C:/Users/Paul/AppData/Local/Temp/_gbsbuild/obj/sprite_candy.rel
                                          [ sprite_candy ]
C:/Users/Paul/AppData/Local/Temp/_gbsbuild/obj/sprite_debug_flowey_face_tileset.rel
                                          [ sprite_debug_flowey_face_tileset ]
C:/Users/Paul/AppData/Local/Temp/_gbsbuild/obj/sprite_debug_flowey_face.rel
                                          [ sprite_debug_flowey_face ]
C:/Users/Paul/AppData/Local/Temp/_gbsbuild/obj/sprite_dummy_tileset.rel
                                          [ sprite_dummy_tileset ]
C:/Users/Paul/AppData/Local/Temp/_gbsbuild/obj/sprite_dummy.rel
                                          [ sprite_dummy ]
C:/Users/Paul/AppData/Local/Temp/_gbsbuild/obj/sprite_empty_tileset.rel
                                          [ sprite_empty_tileset ]
C:/Users/Paul/AppData/Local/Temp/_gbsbuild/obj/sprite_empty.rel
                                          [ sprite_empty ]
C:/Users/Paul/AppData/Local/Temp/_gbsbuild/obj/sprite_flowey_tileset.rel
                                          [ sprite_flowey_tileset ]
C:/Users/Paul/AppData/Local/Temp/_gbsbuild/obj/sprite_flowey.rel
                                          [ sprite_flowey ]
C:/Users/Paul/AppData/Local/Temp/_gbsbuild/obj/sprite_floweybullet_tileset.rel
                                          [ sprite_floweybullet_tileset ]
C:/Users/Paul/AppData/Local/Temp/_gbsbuild/obj/sprite_floweybullet.rel
                                          [ sprite_floweybullet ]
C:/Users/Paul/AppData/Local/Temp/_gbsbuild/obj/sprite_floweycircle_tileset.rel
                                          [ sprite_floweycircle_tileset ]
C:/Users/Paul/AppData/Local/Temp/_gbsbuild/obj/sprite_floweycircle.rel
                                          [ sprite_floweycircle ]
C:/Users/Paul/AppData/Local/Temp/_gbsbuild/obj/sprite_frisk_new_compressed_tileset.rel
                                          [ sprite_frisk_new_compressed_tile ]
C:/Users/Paul/AppData/Local/Temp/_gbsbuild/obj/sprite_frisk_new_compressed.rel
                                          [ sprite_frisk_new_compressed ]
C:/Users/Paul/AppData/Local/Temp/_gbsbuild/obj/sprite_frisk_new_tileset.rel
                                          [ sprite_frisk_new_tileset ]
C:/Users/Paul/AppData/Local/Temp/_gbsbuild/obj/sprite_frisk_new.rel
                                          [ sprite_frisk_new ]
C:/Users/Paul/AppData/Local/Temp/_gbsbuild/obj/sprite_froggit_overworld__tileset.rel
                                          [ sprite_froggit_overworld__tilese ]
C:/Users/Paul/AppData/Local/Temp/_gbsbuild/obj/sprite_froggit_overworld_.rel
                                          [ sprite_froggit_overworld_ ]
C:/Users/Paul/AppData/Local/Temp/_gbsbuild/obj/sprite_heart_tileset.rel
                                          [ sprite_heart_tileset ]
C:/Users/Paul/AppData/Local/Temp/_gbsbuild/obj/sprite_heart.rel
                                          [ sprite_heart ]
C:/Users/Paul/AppData/Local/Temp/_gbsbuild/obj/sprite_rock_tileset.rel
                                          [ sprite_rock_tileset ]
C:/Users/Paul/AppData/Local/Temp/_gbsbuild/obj/sprite_rock.rel
                                          [ sprite_rock ]
C:/Users/Paul/AppData/Local/Temp/_gbsbuild/obj/sprite_sign_tileset.rel
                                          [ sprite_sign_tileset ]
C:/Users/Paul/AppData/Local/Temp/_gbsbuild/obj/sprite_sign.rel
                                          [ sprite_sign ]
C:/Users/Paul/AppData/Local/Temp/_gbsbuild/obj/sprite_spikes_tileset.rel
                                          [ sprite_spikes_tileset ]
C:/Users/Paul/AppData/Local/Temp/_gbsbuild/obj/sprite_spikes.rel
                                          [ sprite_spikes ]
C:/Users/Paul/AppData/Local/Temp/_gbsbuild/obj/sprite_star_tileset.rel
                                          [ sprite_star_tileset ]
C:/Users/Paul/AppData/Local/Temp/_gbsbuild/obj/sprite_star.rel
                                          [ sprite_star ]
C:/Users/Paul/AppData/Local/Temp/_gbsbuild/obj/sprite_toriel_tileset.rel
                                          [ sprite_toriel_tileset ]
C:/Users/Paul/AppData/Local/Temp/_gbsbuild/obj/sprite_toriel.rel
                                          [ sprite_toriel ]
C:/Users/Paul/AppData/Local/Temp/_gbsbuild/obj/sprite_wallswitch_tileset.rel
                                          [ sprite_wallswitch_tileset ]
C:/Users/Paul/AppData/Local/Temp/_gbsbuild/obj/sprite_wallswitch.rel
                                          [ sprite_wallswitch ]
C:/Users/Paul/AppData/Local/Temp/_gbsbuild/obj/spritesheet_none.rel
                                          [ spritesheet_none ]
C:/Users/Paul/AppData/Local/Temp/_gbsbuild/obj/trigger_0_interact.rel
                                          [ trigger_0_interact ]
C:/Users/Paul/AppData/Local/Temp/_gbsbuild/obj/trigger_1_interact.rel
                                          [ trigger_1_interact ]
C:/Users/Paul/AppData/Local/Temp/_gbsbuild/obj/trigger_10_interact.rel
                                          [ trigger_10_interact ]
C:/Users/Paul/AppData/Local/Temp/_gbsbuild/obj/trigger_11_interact.rel
                                          [ trigger_11_interact ]
C:/Users/Paul/AppData/Local/Temp/_gbsbuild/obj/trigger_12_interact.rel
                                          [ trigger_12_interact ]
C:/Users/Paul/AppData/Local/Temp/_gbsbuild/obj/trigger_13_interact.rel
                                          [ trigger_13_interact ]
C:/Users/Paul/AppData/Local/Temp/_gbsbuild/obj/trigger_14_interact.rel
                                          [ trigger_14_interact ]
C:/Users/Paul/AppData/Local/Temp/_gbsbuild/obj/trigger_15_interact.rel
                                          [ trigger_15_interact ]
C:/Users/Paul/AppData/Local/Temp/_gbsbuild/obj/trigger_16_interact.rel
                                          [ trigger_16_interact ]
C:/Users/Paul/AppData/Local/Temp/_gbsbuild/obj/trigger_17_interact.rel
                                          [ trigger_17_interact ]
C:/Users/Paul/AppData/Local/Temp/_gbsbuild/obj/trigger_18_interact.rel
                                          [ trigger_18_interact ]
C:/Users/Paul/AppData/Local/Temp/_gbsbuild/obj/trigger_19_interact.rel
                                          [ trigger_19_interact ]
C:/Users/Paul/AppData/Local/Temp/_gbsbuild/obj/trigger_2_interact.rel
                                          [ trigger_2_interact ]
C:/Users/Paul/AppData/Local/Temp/_gbsbuild/obj/trigger_20_interact.rel
                                          [ trigger_20_interact ]
C:/Users/Paul/AppData/Local/Temp/_gbsbuild/obj/trigger_21_interact.rel
                                          [ trigger_21_interact ]
C:/Users/Paul/AppData/Local/Temp/_gbsbuild/obj/trigger_22_interact.rel
                                          [ trigger_22_interact ]
C:/Users/Paul/AppData/Local/Temp/_gbsbuild/obj/trigger_23_interact.rel
                                          [ trigger_23_interact ]
C:/Users/Paul/AppData/Local/Temp/_gbsbuild/obj/trigger_24_interact.rel
                                          [ trigger_24_interact ]
C:/Users/Paul/AppData/Local/Temp/_gbsbuild/obj/trigger_25_interact.rel
                                          [ trigger_25_interact ]
C:/Users/Paul/AppData/Local/Temp/_gbsbuild/obj/trigger_26_interact.rel
                                          [ trigger_26_interact ]
C:/Users/Paul/AppData/Local/Temp/_gbsbuild/obj/trigger_27_interact.rel
                                          [ trigger_27_interact ]
C:/Users/Paul/AppData/Local/Temp/_gbsbuild/obj/trigger_28_interact.rel
                                          [ trigger_28_interact ]
C:/Users/Paul/AppData/Local/Temp/_gbsbuild/obj/trigger_29_interact.rel
                                          [ trigger_29_interact ]
C:/Users/Paul/AppData/Local/Temp/_gbsbuild/obj/trigger_3_interact.rel
                                          [ trigger_3_interact ]
C:/Users/Paul/AppData/Local/Temp/_gbsbuild/obj/trigger_30_interact.rel
                                          [ trigger_30_interact ]
C:/Users/Paul/AppData/Local/Temp/_gbsbuild/obj/trigger_31_interact.rel
                                          [ trigger_31_interact ]
C:/Users/Paul/AppData/Local/Temp/_gbsbuild/obj/trigger_32_interact.rel
                                          [ trigger_32_interact ]
C:/Users/Paul/AppData/Local/Temp/_gbsbuild/obj/trigger_33_interact.rel
                                          [ trigger_33_interact ]
C:/Users/Paul/AppData/Local/Temp/_gbsbuild/obj/trigger_34_interact.rel
                                          [ trigger_34_interact ]
C:/Users/Paul/AppData/Local/Temp/_gbsbuild/obj/trigger_35_interact.rel
                                          [ trigger_35_interact ]
C:/Users/Paul/AppData/Local/Temp/_gbsbuild/obj/trigger_36_interact.rel
                                          [ trigger_36_interact ]
C:/Users/Paul/AppData/Local/Temp/_gbsbuild/obj/trigger_37_interact.rel
                                          [ trigger_37_interact ]
C:/Users/Paul/AppData/Local/Temp/_gbsbuild/obj/trigger_38_interact.rel
                                          [ trigger_38_interact ]
C:/Users/Paul/AppData/Local/Temp/_gbsbuild/obj/trigger_39_interact.rel
                                          [ trigger_39_interact ]
C:/Users/Paul/AppData/Local/Temp/_gbsbuild/obj/trigger_4_interact.rel
                                          [ trigger_4_interact ]
C:/Users/Paul/AppData/Local/Temp/_gbsbuild/obj/trigger_40_interact.rel
                                          [ trigger_40_interact ]
C:/Users/Paul/AppData/Local/Temp/_gbsbuild/obj/trigger_41_interact.rel
                                          [ trigger_41_interact ]
C:/Users/Paul/AppData/Local/Temp/_gbsbuild/obj/trigger_42_interact.rel
                                          [ trigger_42_interact ]
C:/Users/Paul/AppData/Local/Temp/_gbsbuild/obj/trigger_43_interact.rel
                                          [ trigger_43_interact ]
C:/Users/Paul/AppData/Local/Temp/_gbsbuild/obj/trigger_5_interact.rel
                                          [ trigger_5_interact ]
C:/Users/Paul/AppData/Local/Temp/_gbsbuild/obj/trigger_6_interact.rel
                                          [ trigger_6_interact ]
C:/Users/Paul/AppData/Local/Temp/_gbsbuild/obj/trigger_61_interact.rel
                                          [ trigger_61_interact ]
C:/Users/Paul/AppData/Local/Temp/_gbsbuild/obj/trigger_62_interact.rel
                                          [ trigger_62_interact ]
C:/Users/Paul/AppData/Local/Temp/_gbsbuild/obj/trigger_63_interact.rel
                                          [ trigger_63_interact ]
C:/Users/Paul/AppData/Local/Temp/_gbsbuild/obj/trigger_64_interact.rel
                                          [ trigger_64_interact ]
C:/Users/Paul/AppData/Local/Temp/_gbsbuild/obj/trigger_65_interact.rel
                                          [ trigger_65_interact ]
C:/Users/Paul/AppData/Local/Temp/_gbsbuild/obj/trigger_66_interact.rel
                                          [ trigger_66_interact ]
C:/Users/Paul/AppData/Local/Temp/_gbsbuild/obj/trigger_67_interact.rel
                                          [ trigger_67_interact ]
C:/Users/Paul/AppData/Local/Temp/_gbsbuild/obj/trigger_68_interact.rel
                                          [ trigger_68_interact ]
C:/Users/Paul/AppData/Local/Temp/_gbsbuild/obj/trigger_69_interact.rel
                                          [ trigger_69_interact ]
C:/Users/Paul/AppData/Local/Temp/_gbsbuild/obj/trigger_7_interact.rel
                                          [ trigger_7_interact ]
C:/Users/Paul/AppData/Local/Temp/_gbsbuild/obj/trigger_70_interact.rel
                                          [ trigger_70_interact ]
C:/Users/Paul/AppData/Local/Temp/_gbsbuild/obj/trigger_71_interact.rel
                                          [ trigger_71_interact ]
C:/Users/Paul/AppData/Local/Temp/_gbsbuild/obj/trigger_72_interact.rel
                                          [ trigger_72_interact ]
C:/Users/Paul/AppData/Local/Temp/_gbsbuild/obj/trigger_73_interact.rel
                                          [ trigger_73_interact ]
C:/Users/Paul/AppData/Local/Temp/_gbsbuild/obj/trigger_74_interact.rel
                                          [ trigger_74_interact ]
C:/Users/Paul/AppData/Local/Temp/_gbsbuild/obj/trigger_75_interact.rel
                                          [ trigger_75_interact ]
C:/Users/Paul/AppData/Local/Temp/_gbsbuild/obj/trigger_76_interact.rel
                                          [ trigger_76_interact ]
C:/Users/Paul/AppData/Local/Temp/_gbsbuild/obj/trigger_77_interact.rel
                                          [ trigger_77_interact ]
C:/Users/Paul/AppData/Local/Temp/_gbsbuild/obj/trigger_78_interact.rel
                                          [ trigger_78_interact ]
C:/Users/Paul/AppData/Local/Temp/_gbsbuild/obj/trigger_79_interact.rel
                                          [ trigger_79_interact ]
C:/Users/Paul/AppData/Local/Temp/_gbsbuild/obj/trigger_8_interact.rel
                                          [ trigger_8_interact ]
C:/Users/Paul/AppData/Local/Temp/_gbsbuild/obj/trigger_80_interact.rel
                                          [ trigger_80_interact ]
C:/Users/Paul/AppData/Local/Temp/_gbsbuild/obj/trigger_81_interact.rel
                                          [ trigger_81_interact ]
C:/Users/Paul/AppData/Local/Temp/_gbsbuild/obj/trigger_82_interact.rel
                                          [ trigger_82_interact ]
C:/Users/Paul/AppData/Local/Temp/_gbsbuild/obj/trigger_83_interact.rel
                                          [ trigger_83_interact ]
C:/Users/Paul/AppData/Local/Temp/_gbsbuild/obj/trigger_84_interact.rel
                                          [ trigger_84_interact ]
C:/Users/Paul/AppData/Local/Temp/_gbsbuild/obj/trigger_85_interact.rel
                                          [ trigger_85_interact ]
C:/Users/Paul/AppData/Local/Temp/_gbsbuild/obj/trigger_86_interact.rel
                                          [ trigger_86_interact ]
C:/Users/Paul/AppData/Local/Temp/_gbsbuild/obj/trigger_87_interact.rel
                                          [ trigger_87_interact ]
C:/Users/Paul/AppData/Local/Temp/_gbsbuild/obj/trigger_88_interact.rel
                                          [ trigger_88_interact ]
C:/Users/Paul/AppData/Local/Temp/_gbsbuild/obj/trigger_9_interact.rel
                                          [ trigger_9_interact ]
C:/Users/Paul/AppData/Local/Temp/_gbsbuild/obj/InventoryEnginePlugin.rel
                                          [ InventoryEnginePlugin ]
C:/Users/Paul/AppData/Local/Temp/_gbsbuild/obj/main.rel
                                          [ main ]
C:/Users/Paul/AppData/Local/Temp/_gbsbuild/obj/PauseMenuPlugin.rel
                                          [ PauseMenuPlugin ]
C:/Users/Paul/AppData/Local/Temp/_gbsbuild/obj/SetOverlayID.rel
                                          [ SetOverlayID ]
C:/Users/Paul/AppData/Local/Temp/_gbsbuild/obj/adventure.rel
                                          [ adventure ]
C:/Users/Paul/AppData/Local/Temp/_gbsbuild/obj/logo.rel
                                          [ logo ]
C:/Users/Paul/AppData/Local/Temp/_gbsbuild/obj/platform.rel
                                          [ platform ]
C:/Users/Paul/AppData/Local/Temp/_gbsbuild/obj/pointnclick.rel
                                          [ pointnclick ]
C:/Users/Paul/AppData/Local/Temp/_gbsbuild/obj/shmup.rel
                                          [ shmup ]
C:/Users/Paul/AppData/Local/Temp/_gbsbuild/obj/states_ptrs.rel
                                          [  ]
C:/Users/Paul/AppData/Local/Temp/_gbsbuild/obj/topdown.rel
                                          [ topdown ]


Libraries Linked                          [ object file ]

C:\Users\Paul\AppData\Local\Temp/_gbstools/gbdk/lib/gb/gb.lib
                                          [ fill_rect_wi.o ]
C:\Users\Paul\AppData\Local\Temp/_gbstools/gbdk/lib/sm83/sm83.lib
                                          [ rand.o ]
lib/hUGEDriver.lib                        [ hUGEDriver.o ]
C:\Users\Paul\AppData\Local\Temp/_gbstools/gbdk/lib/gb/gb.lib
                                          [ sfr.o ]
C:\Users\Paul\AppData\Local\Temp/_gbstools/gbdk/lib/gb/gb.lib
                                          [ get_data.o ]
C:\Users\Paul\AppData\Local\Temp/_gbstools/gbdk/lib/gb/gb.lib
                                          [ get_tile.o ]
C:\Users\Paul\AppData\Local\Temp/_gbstools/gbdk/lib/sm83/sm83.lib
                                          [ itoa.o ]
C:\Users\Paul\AppData\Local\Temp/_gbstools/gbdk/lib/gb/gb.lib
                                          [ cgb_palettes.o ]
C:\Users\Paul\AppData\Local\Temp/_gbstools/gbdk/lib/gb/gb.lib
                                          [ metasprites_hide_spr.o ]
C:\Users\Paul\AppData\Local\Temp/_gbstools/gbdk/lib/sm83/sm83.lib
                                          [ mul.o ]
C:\Users\Paul\AppData\Local\Temp/_gbstools/gbdk/lib/gb/gb.lib
                                          [ set_tile.o ]
C:\Users\Paul\AppData\Local\Temp/_gbstools/gbdk/lib/sm83/sm83.lib
                                          [ abs.o ]
C:\Users\Paul\AppData\Local\Temp/_gbstools/gbdk/lib/gb/gb.lib
                                          [ set_wi_t.o ]
C:\Users\Paul\AppData\Local\Temp/_gbstools/gbdk/lib/gb/gb.lib
                                          [ set_data.o ]
C:\Users\Paul\AppData\Local\Temp/_gbstools/gbdk/lib/sm83/sm83.lib
                                          [ reverse.o ]
C:\Users\Paul\AppData\Local\Temp/_gbstools/gbdk/lib/gb/gb.lib
                                          [ far_ptr.o ]
C:\Users\Paul\AppData\Local\Temp/_gbstools/gbdk/lib/gb/gb.lib
                                          [ sgb.o ]
C:\Users\Paul\AppData\Local\Temp/_gbstools/gbdk/lib/gb/gb.lib
                                          [ lcd.o ]
C:\Users\Paul\AppData\Local\Temp/_gbstools/gbdk/lib/gb/gb.lib
                                          [ fill_rect.o ]
C:\Users\Paul\AppData\Local\Temp/_gbstools/gbdk/lib/gb/gb.lib
                                          [ cpy_data.o ]
C:\Users\Paul\AppData\Local\Temp/_gbstools/gbdk/lib/gb/gb.lib
                                          [ fill_rect_bk.o ]
C:\Users\Paul\AppData\Local\Temp/_gbstools/gbdk/lib/gb/gb.lib
                                          [ pad.o ]
C:\Users\Paul\AppData\Local\Temp/_gbstools/gbdk/lib/gb/gb.lib
                                          [ metasprites.o ]
C:\Users\Paul\AppData\Local\Temp/_gbstools/gbdk/lib/sm83/sm83.lib
                                          [ __sdcc_call_hl.o ]
C:\Users\Paul\AppData\Local\Temp/_gbstools/gbdk/lib/sm83/sm83.lib
                                          [ memcpy.o ]
C:\Users\Paul\AppData\Local\Temp/_gbstools/gbdk/lib/sm83/sm83.lib
                                          [ _memset.o ]
C:\Users\Paul\AppData\Local\Temp/_gbstools/gbdk/lib/gb/gb.lib
                                          [ set_xy_t.o ]
C:\Users\Paul\AppData\Local\Temp/_gbstools/gbdk/lib/gb/gb.lib
                                          [ ___sdcc_bcall_ehl.o ]
C:\Users\Paul\AppData\Local\Temp/_gbstools/gbdk/lib/sm83/sm83.lib
                                          [ strcat.o ]
C:\Users\Paul\AppData\Local\Temp/_gbstools/gbdk/lib/gb/gb.lib
                                          [ cgb.o ]
C:\Users\Paul\AppData\Local\Temp/_gbstools/gbdk/lib/sm83/sm83.lib
                                          [ div.o ]
C:\Users\Paul\AppData\Local\Temp/_gbstools/gbdk/lib/gb/gb.lib
                                          [ set_bk_t.o ]

ASxxxx Linker V03.00/V05.40 + sdld,  page 98.

User Base Address Definitions

_DATA=0xC0A0
_CODE=0x0200
ASxxxx Linker V03.00/V05.40 + sdld,  page 99.

User Global Definitions

.STACK=0xDF00
_shadow_OAM=0xC000
.refresh_OAM=0xFF80
__start_save=28

