ASxxxx Linker V03.00 + NoICE + sdld,  page 1.
Hexadecimal  [32-Bits]

Area                                    Addr        Size        Decimal Bytes (Attributes)
--------------------------------        ----        ----        ------- ----- ------------
.  .ABS.                            00000000    00000000 =           0. bytes (ABS,CON)

      Value  Global                              Global Defined In Module
      -----  --------------------------------   ------------------------
     00000000  .__.ABS.                           
     00000000  _rRAMG                             
     00000000  l__BASE                         
     00000000  l__BSS                          
     00000000  l__CABS                         
     00000000  l__CODE_0                       
     00000000  l__CRASH_HEADER                 
     00000000  l__CRASH_SCRATCH                
     00000000  l__DABS                         
     00000000  l__EHL_TRAMPOLINE               
     00000000  l__HEADER                       
     00000000  l__HEADER_LCD                   
     00000000  l__HEADER_SIO                   
     00000000  l__HEADER_TIMER                 
     00000000  l__HEAP                         
     00000000  l__HRAM                         
     00000000  l__LIT                          
     00000000  s__CABS                         
     00000000  s__CRASH_HEADER                 
     00000000  s__CRASH_HEADER0                
     00000000  s__CRASH_HEADER1                
     00000000  s__CRASH_SCRATCH                
     00000000  s__CRASH_SCRATCH2               
     00000000  s__DABS                         
     00000000  s__EHL_TRAMPOLINE               
     00000000  s__EHL_TRAMPOLINE0              
     00000000  s__HEADER                       
     00000000  s__HEADER0                      
     00000000  s__HEADER1                      
     00000000  s__HEADER10                     
     00000000  s__HEADER11                     
     00000000  s__HEADER2                      
     00000000  s__HEADER3                      
     00000000  s__HEADER4                      
     00000000  s__HEADER5                      
     00000000  s__HEADER6                      
     00000000  s__HEADER7                      
     00000000  s__HEADER8                      
     00000000  s__HEADER9                      
     00000000  s__HEADER_LCD                   
     00000000  s__HEADER_LCD0                  
     00000000  s__HEADER_SIO                   
     00000000  s__HEADER_SIO0                  
     00000000  s__HEADER_TIMER                 
     00000000  s__HEADER_TIMER0                
     00000000  s__HEADERa                      
     00000000  s__HEADERb                      
     00000000  s__HEADERc                      
     00000000  s__HEADERd                      
     00000000  s__HEADERe                      
ASxxxx Linker V03.00 + NoICE + sdld,  page 2.
Hexadecimal  [32-Bits]

Area                                    Addr        Size        Decimal Bytes (Attributes)
--------------------------------        ----        ----        ------- ----- ------------
.  .ABS.                            00000000    00000000 =           0. bytes (ABS,CON)

      Value  Global                              Global Defined In Module
      -----  --------------------------------   ------------------------
     00000000  s__HEADERf                      
     00000000  s__HRAM                         
     00000000  s__HRAM12                       
     00000001  ___bank_VM_ACTOR                   vm_actor
     00000001  ___bank_VM_SGB                     vm_sgb
     00000001  ___bank_actor_7_interact           actor_7_interact
     00000001  ___bank_scene_battle_test_1_spri   scene_battle_test_1_sprites
     00000001  ___bank_song_ruins_Data            song_ruins_Data
     00000001  b_ui_draw_frame                    ui
     00000001  b_ui_draw_text_buffer_char         ui
     00000001  b_ui_init                          ui
     00000001  b_ui_load_tiles                    ui
     00000001  b_ui_run_menu                      ui
     00000001  b_ui_run_modal                     ui
     00000001  b_ui_set_start_tile                ui
     00000001  b_vm_actor_activate                vm_actor
     00000001  b_vm_actor_deactivate              vm_actor
     00000001  b_vm_actor_emote                   vm_actor
     00000001  b_vm_actor_get_angle               vm_actor
     00000001  b_vm_actor_get_anim_frame          vm_actor
     00000001  b_vm_actor_get_dir                 vm_actor
     00000001  b_vm_actor_get_pos                 vm_actor
     00000001  b_vm_actor_move_cancel             vm_actor
     00000001  b_vm_actor_move_to                 vm_actor
     00000001  b_vm_actor_replace_tile            vm_actor
     00000001  b_vm_actor_set_anim                vm_actor
     00000001  b_vm_actor_set_anim_frame          vm_actor
     00000001  b_vm_actor_set_anim_set            vm_actor
     00000001  b_vm_actor_set_anim_tick           vm_actor
     00000001  b_vm_actor_set_bounds              vm_actor
     00000001  b_vm_actor_set_dir                 vm_actor
     00000001  b_vm_actor_set_flags               vm_actor
     00000001  b_vm_actor_set_move_speed          vm_actor
     00000001  b_vm_actor_set_pos                 vm_actor
     00000001  b_vm_actor_set_spritesheet         vm_actor
     00000001  b_vm_actor_set_spritesheet_by_re   vm_actor
     00000001  b_vm_actor_terminate_update        vm_actor
     00000001  l__GSFINAL                      
     00000001  l__HEADER0                      
     00000001  l__HEADER11                     
     00000001  l__HEADER9                      
     00000001  l__HEADERa                      
     00000001  l__HEADERb                      
     00000001  l__HEADERd                      
     00000001  l__HEADERe                      
     00000002  ___bank_VM_MAIN                    vm
     00000002  ___bank_bg_room08_tilemap          bg_room08_tilemap
     00000002  ___bank_bg_room08_tilemap_attr     bg_room08_tilemap_attr
     00000002  ___bank_trigger_50_interact        trigger_50_interact
     00000002  b_script_detach_hthread            vm
     00000002  b_script_execute                   vm
ASxxxx Linker V03.00 + NoICE + sdld,  page 3.
Hexadecimal  [32-Bits]

Area                                    Addr        Size        Decimal Bytes (Attributes)
--------------------------------        ----        ----        ------- ----- ------------
.  .ABS.                            00000000    00000000 =           0. bytes (ABS,CON)

      Value  Global                              Global Defined In Module
      -----  --------------------------------   ------------------------
     00000002  b_script_runner_init               vm
     00000002  b_script_terminate                 vm
     00000002  b_vm_call                          vm
     00000002  b_vm_call_far                      vm
     00000002  b_vm_get_indirect                  vm
     00000002  b_vm_get_int16                     vm
     00000002  b_vm_get_int8                      vm
     00000002  b_vm_get_tlocal                    vm
     00000002  b_vm_get_uint8                     vm
     00000002  b_vm_idle                          vm
     00000002  b_vm_if                            vm
     00000002  b_vm_if_const                      vm
     00000002  b_vm_init_rng                      vm
     00000002  b_vm_invoke                        vm
     00000002  b_vm_join                          vm
     00000002  b_vm_jump                          vm
     00000002  b_vm_lock                          vm
     00000002  b_vm_loop                          vm
     00000002  b_vm_memcpy                        vm
     00000002  b_vm_memset                        vm
     00000002  b_vm_poll_loaded                   vm
     00000002  b_vm_pop                           vm
     00000002  b_vm_push                          vm
     00000002  b_vm_push_reference                vm
     00000002  b_vm_push_value                    vm
     00000002  b_vm_push_value_ind                vm
     00000002  b_vm_raise                         vm
     00000002  b_vm_rand                          vm
     00000002  b_vm_reserve                       vm
     00000002  b_vm_ret                           vm
     00000002  b_vm_ret_far                       vm
     00000002  b_vm_set                           vm
     00000002  b_vm_set_const                     vm
     00000002  b_vm_set_const_int16               vm
     00000002  b_vm_set_const_int8                vm
     00000002  b_vm_set_indirect                  vm
     00000002  b_vm_set_int16                     vm
     00000002  b_vm_set_int8                      vm
     00000002  b_vm_set_uint8                     vm
     00000002  b_vm_terminate                     vm
     00000002  b_vm_test_terminate                vm
     00000002  b_vm_unlock                        vm
     00000002  b_wait_frames                      vm
     00000002  l__HEADER5                      
     00000002  l__HEADERc                      
     00000002  l__HEADERf                      
     00000003  ___bank_ACTOR                      actor
     00000003  ___bank_scene_room_08_collisions   scene_room_08_collisions
     00000003  ___bank_script_enter_battle        script_enter_battle
     00000003  ___bank_sprite_player_tileset      sprite_player_tileset
     00000003  b_activate_actor                   actor
ASxxxx Linker V03.00 + NoICE + sdld,  page 4.
Hexadecimal  [32-Bits]

Area                                    Addr        Size        Decimal Bytes (Attributes)
--------------------------------        ----        ----        ------- ----- ------------
.  .ABS.                            00000000    00000000 =           0. bytes (ABS,CON)

      Value  Global                              Global Defined In Module
      -----  --------------------------------   ------------------------
     00000003  b_activate_actors_in_col           actor
     00000003  b_activate_actors_in_row           actor
     00000003  b_actor_at_tile                    actor
     00000003  b_actor_get_frame_offset           actor
     00000003  b_actor_in_front_of_player         actor
     00000003  b_actor_overlapping_bb             actor
     00000003  b_actor_overlapping_player         actor
     00000003  b_actor_set_anim_idle              actor
     00000003  b_actor_set_anim_moving            actor
     00000003  b_actor_set_dir                    actor
     00000003  b_actor_set_frame_offset           actor
     00000003  b_actor_set_frames                 actor
     00000003  b_actors_handle_player_collision   actor
     00000003  b_actors_init                      actor
     00000003  b_check_collision_in_direction     actor
     00000003  b_deactivate_actor                 actor
     00000003  b_platform_init                    platform
     00000003  b_platform_update                  platform
     00000003  b_player_init                      actor
     00000003  l__HEADER8                      
     00000003  l__HEADER_LCD0                  
     00000003  l__HRAM12                       
     00000004  ___bank_bg_room07_test__tilemap_   bg_room07_test__tilemap_attr
     00000004  ___bank_bg_room13_tilemap          bg_room13_tilemap
     00000004  ___bank_bg_room13_tilemap_attr     bg_room13_tilemap_attr
     00000004  ___bank_scene_room_13_collisions   scene_room_13_collisions
     00000004  b_erase_flash                      
     00000004  b_logo_init                        logo
     00000004  b_logo_update                      logo
     00000004  b_save_sram_banks                  
     00000004  l__CRASH_HEADER1                
     00000004  l__HEADER_SIO0                  
     00000004  l__HEADER_TIMER0                
     00000005  ___bank_font_determination         font_determination
     00000005  ___bank_font_determination_color   font_determination_color
     00000005  ___bank_font_determination_light   font_determination_light
     00000005  ___bank_scene_battle_test_2_spri   scene_battle_test_2_sprites
     00000005  ___bank_song_once_upon_a_time_Da   song_once_upon_a_time_Data
     00000005  b_shmup_init                       shmup
     00000005  b_shmup_update                     shmup
     00000005  l__CRASH_HEADER0                
     00000005  l__HEADER1                      
     00000006  ___bank_bg_intro03_tileset         bg_intro03_tileset
     00000006  ___bank_bg_intro04_tileset         bg_intro04_tileset
     00000006  ___bank_bg_room07_test__tilemap    bg_room07_test__tilemap
     00000006  ___bank_bg_room20_tilemap_attr     bg_room20_tilemap_attr
     00000006  ___bank_cursor_image               cursor_image
     00000006  ___bank_scene_room_07_collisions   scene_room_07_collisions
     00000006  b_do_load_palette                  data_manager
     00000006  b_load_background                  data_manager
     00000006  b_load_bkg_tileset                 data_manager
ASxxxx Linker V03.00 + NoICE + sdld,  page 5.
Hexadecimal  [32-Bits]

Area                                    Addr        Size        Decimal Bytes (Attributes)
--------------------------------        ----        ----        ------- ----- ------------
.  .ABS.                            00000000    00000000 =           0. bytes (ABS,CON)

      Value  Global                              Global Defined In Module
      -----  --------------------------------   ------------------------
     00000006  b_load_bounds                      data_manager
     00000006  b_load_emote                       data_manager
     00000006  b_load_init                        data_manager
     00000006  b_load_player                      data_manager
     00000006  b_load_scene                       data_manager
     00000006  b_load_sprite                      data_manager
     00000006  l__HEADER7                      
     00000007  ___bank_bg_intro07_tileset         bg_intro07_tileset
     00000007  ___bank_bg_room19_tilemap          bg_room19_tilemap
     00000007  ___bank_bg_room19_tilemap_attr     bg_room19_tilemap_attr
     00000007  ___bank_bg_room25_tilemap          bg_room25_tilemap
     00000007  ___bank_bg_room25_tilemap_attr     bg_room25_tilemap_attr
     00000007  ___bank_scene_room_19_collisions   scene_room_19_collisions
     00000007  ___bank_scene_room_25_collisions   scene_room_25_collisions
     00000007  b_camera_init                      camera
     00000007  b_camera_reset                     camera
     00000007  l__HEADER2                      
     00000008  ___bank_bg_intro02_tileset         bg_intro02_tileset
     00000008  ___bank_bg_room11_tilemap          bg_room11_tilemap
     00000008  ___bank_bg_room11_tilemap_attr     bg_room11_tilemap_attr
     00000008  ___bank_bg_room18_tilemap          bg_room18_tilemap
     00000008  ___bank_bg_room18_tilemap_attr     bg_room18_tilemap_attr
     00000008  ___bank_bg_room20_tilemap          bg_room20_tilemap
     00000008  ___bank_scene_room_02_sprites      scene_room_02_sprites
     00000008  ___bank_scene_room_07_init         scene_room_07_init
     00000008  ___bank_scene_room_11_collisions   scene_room_11_collisions
     00000008  ___bank_scene_room_20_collisions   scene_room_20_collisions
     00000008  l__HEADER3                      
     00000009  ___bank_VM_UI                      vm_ui
     00000009  ___bank_bg_battle1_test            bg_battle1_test
     00000009  ___bank_bg_room05_tilemap          bg_room05_tilemap
     00000009  ___bank_bg_room05_tilemap_attr     bg_room05_tilemap_attr
     00000009  ___bank_bg_room21_tilemap_attr     bg_room21_tilemap_attr
     00000009  ___bank_scene_room_05_collisions   scene_room_05_collisions
     00000009  ___bank_scene_room_18_collisions   scene_room_18_collisions
     00000009  b_adventure_init                   adventure
     00000009  b_adventure_update                 adventure
     00000009  b_scroll_init                      scroll
     00000009  b_scroll_repaint                   scroll
     00000009  b_scroll_reset                     scroll
     00000009  b_scroll_update                    scroll
     00000009  b_topdown_init                     topdown
     00000009  b_topdown_update                   topdown
     00000009  b_vm_choice                        vm_ui
     00000009  b_vm_display_text                  vm_ui
     00000009  b_vm_overlay_clear                 vm_ui
     00000009  b_vm_overlay_move_to               vm_ui
     00000009  b_vm_overlay_scroll                vm_ui
     00000009  b_vm_overlay_set_map               vm_ui
     00000009  b_vm_overlay_set_scroll            vm_ui
     00000009  b_vm_overlay_set_submap            vm_ui
ASxxxx Linker V03.00 + NoICE + sdld,  page 6.
Hexadecimal  [32-Bits]

Area                                    Addr        Size        Decimal Bytes (Attributes)
--------------------------------        ----        ----        ------- ----- ------------
.  .ABS.                            00000000    00000000 =           0. bytes (ABS,CON)

      Value  Global                              Global Defined In Module
      -----  --------------------------------   ------------------------
     00000009  b_vm_overlay_set_submap_ex         vm_ui
     00000009  b_vm_overlay_setpos                vm_ui
     00000009  b_vm_overlay_show                  vm_ui
     00000009  b_vm_overlay_wait                  vm_ui
     00000009  b_vm_set_font                      vm_ui
     00000009  b_vm_set_text_sound                vm_ui
     00000009  b_vm_switch_text_layer             vm_ui
     0000000A  ___bank_bg_room01_tileset          bg_room01_tileset
     0000000A  ___bank_bg_room11_tileset          bg_room11_tileset
     0000000A  ___bank_bg_room21_tilemap          bg_room21_tilemap
     0000000A  ___bank_bg_room22_tilemap          bg_room22_tilemap
     0000000A  ___bank_bg_room23_tilemap          bg_room23_tilemap
     0000000A  ___bank_bg_room24_tilemap          bg_room24_tilemap
     0000000A  ___bank_scene_room_21_collisions   scene_room_21_collisions
     0000000A  ___bank_scene_room_22_collisions   scene_room_22_collisions
     0000000A  ___bank_scene_room_23_collisions   scene_room_23_collisions
     0000000A  ___bank_scene_room_24_collisions   scene_room_24_collisions
     0000000A  ___bank_sprite_empty               sprite_empty
     0000000B  ___bank_VM_GAMEBOY                 vm_gameboy
     0000000B  ___bank_bg_intro01_tileset         bg_intro01_tileset
     0000000B  ___bank_bg_room01_tilemap          bg_room01_tilemap
     0000000B  ___bank_bg_room01_tilemap_attr     bg_room01_tilemap_attr
     0000000B  ___bank_bg_room03_tilemap_attr     bg_room03_tilemap_attr
     0000000B  ___bank_bg_room07_test__tileset    bg_room07_test__tileset
     0000000B  ___bank_bg_room10_tilemap          bg_room10_tilemap
     0000000B  ___bank_bg_room10_tilemap_attr     bg_room10_tilemap_attr
     0000000B  ___bank_bg_room24_tileset          bg_room24_tileset
     0000000B  ___bank_scene_room_01_collisions   scene_room_01_collisions
     0000000B  ___bank_scene_room_10_collisions   scene_room_10_collisions
     0000000B  ___bank_script_7                   script_7
     0000000B  b_vm_context_prepare               vm_gameboy
     0000000B  b_vm_fade                          vm_gameboy
     0000000B  b_vm_get_tile_xy                   vm_gameboy
     0000000B  b_vm_input_attach                  vm_gameboy
     0000000B  b_vm_input_detach                  vm_gameboy
     0000000B  b_vm_input_get                     vm_gameboy
     0000000B  b_vm_input_wait                    vm_gameboy
     0000000B  b_vm_load_tiles                    vm_gameboy
     0000000B  b_vm_load_tileset                  vm_gameboy
     0000000B  b_vm_poll                          vm_gameboy
     0000000B  b_vm_replace_tile                  vm_gameboy
     0000000B  b_vm_replace_tile_xy               vm_gameboy
     0000000B  b_vm_rumble                        vm_gameboy
     0000000B  b_vm_set_sprite_mode               vm_gameboy
     0000000B  b_vm_set_sprites_visible           vm_gameboy
     0000000B  b_vm_timer_prepare                 vm_gameboy
     0000000B  b_vm_timer_reset                   vm_gameboy
     0000000B  b_vm_timer_set                     vm_gameboy
     0000000B  b_vm_timer_stop                    vm_gameboy
     0000000C  ___bank_bg_intro06_tileset         bg_intro06_tileset
     0000000C  ___bank_bg_room02_tileset          bg_room02_tileset
ASxxxx Linker V03.00 + NoICE + sdld,  page 7.
Hexadecimal  [32-Bits]

Area                                    Addr        Size        Decimal Bytes (Attributes)
--------------------------------        ----        ----        ------- ----- ------------
.  .ABS.                            00000000    00000000 =           0. bytes (ABS,CON)

      Value  Global                              Global Defined In Module
      -----  --------------------------------   ------------------------
     0000000C  ___bank_bg_room03_tilemap          bg_room03_tilemap
     0000000C  ___bank_bg_room03_tileset          bg_room03_tileset
     0000000C  ___bank_bg_room12_tilemap          bg_room12_tilemap
     0000000C  ___bank_bg_room12_tilemap_attr     bg_room12_tilemap_attr
     0000000C  ___bank_bg_room14_tilemap          bg_room14_tilemap
     0000000C  ___bank_bg_room14_tilemap_attr     bg_room14_tilemap_attr
     0000000C  ___bank_bg_room25_tileset          bg_room25_tileset
     0000000C  ___bank_scene_room_03_collisions   scene_room_03_collisions
     0000000C  ___bank_scene_room_03_sprites      scene_room_03_sprites
     0000000C  ___bank_scene_room_14_collisions   scene_room_14_collisions
     0000000C  ___bank_song_start_menu_Data       song_start_menu_Data
     0000000C  b___HandleCrash_banked             
     0000000D  ___bank_VM_MATH                    vm_math
     0000000D  ___bank_VM_SIO                     vm_sio
     0000000D  ___bank_bg_room02_tilemap          bg_room02_tilemap
     0000000D  ___bank_bg_room02_tilemap_attr     bg_room02_tilemap_attr
     0000000D  ___bank_bg_room05_tileset          bg_room05_tileset
     0000000D  ___bank_bg_room08_tileset          bg_room08_tileset
     0000000D  ___bank_bg_room10_tileset          bg_room10_tileset
     0000000D  ___bank_bg_room13_tileset          bg_room13_tileset
     0000000D  ___bank_bg_room21_tileset          bg_room21_tileset
     0000000D  ___bank_bg_room23_tileset          bg_room23_tileset
     0000000D  ___bank_scene_room_02_collisions   scene_room_02_collisions
     0000000D  ___bank_scene_room_03_init         scene_room_03_init
     0000000D  ___bank_scene_room_12_collisions   scene_room_12_collisions
     0000000D  b_core_reset                       core
     0000000D  b_core_run                         core
     0000000D  b_data_clear                       load_save
     0000000D  b_data_init                        load_save
     0000000D  b_data_load                        load_save
     0000000D  b_data_peek                        load_save
     0000000D  b_data_save                        load_save
     0000000D  b_gbprinter_detect                 gbprinter
     0000000D  b_gbprinter_print_overlay          gbprinter
     0000000D  b_projectile_launch                projectiles
     0000000D  b_projectiles_init                 projectiles
     0000000D  b_trigger_activate_at              trigger
     0000000D  b_trigger_activate_at_intersecti   trigger
     0000000D  b_trigger_at_intersection          trigger
     0000000D  b_trigger_at_tile                  trigger
     0000000D  b_trigger_interact                 trigger
     0000000D  b_trigger_reset                    trigger
     0000000D  b_vm_cos_scale                     vm_math
     0000000D  b_vm_sin_scale                     vm_math
     0000000D  b_vm_sio_exchange                  vm_sio
     0000000D  b_vm_sio_set_mode                  vm_sio
     0000000E  ___bank_VM_CAMERA                  vm_camera
     0000000E  ___bank_bg_battle1_test_tileset    bg_battle1_test_tileset
     0000000E  ___bank_bg_battle2_test_tileset    bg_battle2_test_tileset
     0000000E  ___bank_bg_room04_tilemap          bg_room04_tilemap
     0000000E  ___bank_bg_room04_tilemap_attr     bg_room04_tilemap_attr
ASxxxx Linker V03.00 + NoICE + sdld,  page 8.
Hexadecimal  [32-Bits]

Area                                    Addr        Size        Decimal Bytes (Attributes)
--------------------------------        ----        ----        ------- ----- ------------
.  .ABS.                            00000000    00000000 =           0. bytes (ABS,CON)

      Value  Global                              Global Defined In Module
      -----  --------------------------------   ------------------------
     0000000E  ___bank_bg_room06_tilemap          bg_room06_tilemap
     0000000E  ___bank_bg_room06_tilemap_attr     bg_room06_tilemap_attr
     0000000E  ___bank_bg_room09_tilemap          bg_room09_tilemap
     0000000E  ___bank_bg_room09_tilemap_attr     bg_room09_tilemap_attr
     0000000E  ___bank_bg_room12_tileset          bg_room12_tileset
     0000000E  ___bank_bg_room15_tilemap          bg_room15_tilemap
     0000000E  ___bank_bg_room15_tilemap_attr     bg_room15_tilemap_attr
     0000000E  ___bank_bg_room16_tilemap          bg_room16_tilemap
     0000000E  ___bank_bg_room16_tilemap_attr     bg_room16_tilemap_attr
     0000000E  ___bank_bg_room17_tilemap          bg_room17_tilemap
     0000000E  ___bank_bg_room19_tileset          bg_room19_tileset
     0000000E  ___bank_bg_room22_tileset          bg_room22_tileset
     0000000E  ___bank_scene_room_04_collisions   scene_room_04_collisions
     0000000E  ___bank_scene_room_06_collisions   scene_room_06_collisions
     0000000E  ___bank_scene_room_09_collisions   scene_room_09_collisions
     0000000E  b_camera_shake_frames              vm_camera
     0000000E  b_pointnclick_init                 pointnclick
     0000000E  b_pointnclick_update               pointnclick
     0000000E  b_vm_camera_move_to                vm_camera
     0000000E  b_vm_camera_set_pos                vm_camera
     0000000F  ___bank_VM_PALETTE                 vm_palette
     0000000F  ___bank_actor_32_interact          actor_32_interact
     0000000F  ___bank_actor_5_update             actor_5_update
     0000000F  ___bank_bg_battle1_test_tilemap    bg_battle1_test_tilemap
     0000000F  ___bank_bg_battle1_test_tilemap_   bg_battle1_test_tilemap_attr
     0000000F  ___bank_bg_battle2_test_tilemap    bg_battle2_test_tilemap
     0000000F  ___bank_bg_battlemockup_tilemap    bg_battlemockup_tilemap
     0000000F  ___bank_bg_battlemockup_tilemap_   bg_battlemockup_tilemap_attr
     0000000F  ___bank_bg_battlemockup_tileset    bg_battlemockup_tileset
     0000000F  ___bank_bg_gameover_tilemap        bg_gameover_tilemap
     0000000F  ___bank_bg_intro01_tilemap_attr    bg_intro01_tilemap_attr
     0000000F  ___bank_bg_loadmenu_tileset        bg_loadmenu_tileset
     0000000F  ___bank_bg_logo_tileset            bg_logo_tileset
     0000000F  ___bank_bg_room04_tileset          bg_room04_tileset
     0000000F  ___bank_bg_room06_tileset          bg_room06_tileset
     0000000F  ___bank_bg_room09_tileset          bg_room09_tileset
     0000000F  ___bank_bg_room14_tileset          bg_room14_tileset
     0000000F  ___bank_bg_room15_tileset          bg_room15_tileset
     0000000F  ___bank_bg_room16_tileset          bg_room16_tileset
     0000000F  ___bank_bg_room17_tileset          bg_room17_tileset
     0000000F  ___bank_bg_room18_tileset          bg_room18_tileset
     0000000F  ___bank_scene_battle_test_1_init   scene_battle_test_1_init
     0000000F  ___bank_scene_battle_test__colli   scene_battle_test__collision
     0000000F  ___bank_scene_room_04_actors       scene_room_04_actors
     0000000F  ___bank_scene_room_05_actors       scene_room_05_actors
     0000000F  ___bank_scene_room_06_sprites      scene_room_06_sprites
     0000000F  ___bank_scene_room_15_collisions   scene_room_15_collisions
     0000000F  ___bank_scene_room_16_collisions   scene_room_16_collisions
     0000000F  ___bank_scene_room_17_collisions   scene_room_17_collisions
     0000000F  ___bank_sprite_battleui_tileset    sprite_battleui_tileset
     0000000F  b_fade_applypalettechange          fade_manager
ASxxxx Linker V03.00 + NoICE + sdld,  page 9.
Hexadecimal  [32-Bits]

Area                                    Addr        Size        Decimal Bytes (Attributes)
--------------------------------        ----        ----        ------- ----- ------------
.  .ABS.                            00000000    00000000 =           0. bytes (ABS,CON)

      Value  Global                              Global Defined In Module
      -----  --------------------------------   ------------------------
     0000000F  b_fade_in                          fade_manager
     0000000F  b_fade_in_modal                    fade_manager
     0000000F  b_fade_init                        fade_manager
     0000000F  b_fade_out                         fade_manager
     0000000F  b_fade_out_modal                   fade_manager
     0000000F  b_fade_setspeed                    fade_manager
     0000000F  b_fade_update                      fade_manager
     0000000F  b_set_sgb_border                   sgb_border
     0000000F  b_vm_load_palette                  vm_palette
     00000010  ___bank_VM_GBPRINTER               vm_gbprinter
     00000010  ___bank_VM_MUSIC                   vm_music
     00000010  ___bank_VM_PROJECTILE              vm_projectiles
     00000010  ___bank_VM_RTC                     vm_rtc
     00000010  ___bank_VM_SCENE                   vm_scene
     00000010  ___bank_actor_34_update            actor_34_update
     00000010  ___bank_actor_37_update            actor_37_update
     00000010  ___bank_actor_38_update            actor_38_update
     00000010  ___bank_bg_gameover_tileset        bg_gameover_tileset
     00000010  ___bank_bg_intro01_tilemap         bg_intro01_tilemap
     00000010  ___bank_bg_intro02_tilemap         bg_intro02_tilemap
     00000010  ___bank_bg_intro03_tilemap         bg_intro03_tilemap
     00000010  ___bank_bg_intro04_tilemap         bg_intro04_tilemap
     00000010  ___bank_bg_intro05_tilemap         bg_intro05_tilemap
     00000010  ___bank_bg_intro05_tileset         bg_intro05_tileset
     00000010  ___bank_bg_intro06_tilemap         bg_intro06_tilemap
     00000010  ___bank_bg_intro07_tilemap         bg_intro07_tilemap
     00000010  ___bank_bg_introtemplate_tilemap   bg_introtemplate_tilemap
     00000010  ___bank_bg_loadmenu_tilemap        bg_loadmenu_tilemap
     00000010  ___bank_bg_loadmenu_tilemap_attr   bg_loadmenu_tilemap_attr
     00000010  ___bank_bg_logo_tilemap            bg_logo_tilemap
     00000010  ___bank_bg_room20_tileset          bg_room20_tileset
     00000010  ___bank_bg_tilebank_misc_tilemap   bg_tilebank_misc_tilemap
     00000010  ___bank_bg_tilebank_misc_tilemap   bg_tilebank_misc_tilemap_att
     00000010  ___bank_bg_tilebank_water_tilema   bg_tilebank_water_tilemap
     00000010  ___bank_bg_tilebank_water_tilese   bg_tilebank_water_tileset
     00000010  ___bank_scene_40_collisions        scene_40_collisions
     00000010  ___bank_scene_41_collisions        scene_41_collisions
     00000010  ___bank_scene_battle_test_1_coll   scene_battle_test_1_collisio
     00000010  ___bank_scene_battle_test_2_acto   scene_battle_test_2_actors
     00000010  ___bank_scene_battle_test_2_coll   scene_battle_test_2_collisio
     00000010  ___bank_scene_battle_test__actor   scene_battle_test__actors
     00000010  ___bank_scene_battle_test__init    scene_battle_test__init
     00000010  ___bank_scene_debug_collisions     scene_debug_collisions
     00000010  ___bank_scene_gameover_collision   scene_gameover_collisions
     00000010  ___bank_scene_intro_01_collision   scene_intro_01_collisions
     00000010  ___bank_scene_intro_02_collision   scene_intro_02_collisions
     00000010  ___bank_scene_intro_02_init        scene_intro_02_init
     00000010  ___bank_scene_intro_03_collision   scene_intro_03_collisions
     00000010  ___bank_scene_intro_04_collision   scene_intro_04_collisions
     00000010  ___bank_scene_intro_05_collision   scene_intro_05_collisions
     00000010  ___bank_scene_intro_06_collision   scene_intro_06_collisions
ASxxxx Linker V03.00 + NoICE + sdld,  page 10.
Hexadecimal  [32-Bits]

Area                                    Addr        Size        Decimal Bytes (Attributes)
--------------------------------        ----        ----        ------- ----- ------------
.  .ABS.                            00000000    00000000 =           0. bytes (ABS,CON)

      Value  Global                              Global Defined In Module
      -----  --------------------------------   ------------------------
     00000010  ___bank_scene_intro_07_collision   scene_intro_07_collisions
     00000010  ___bank_scene_logo_collisions      scene_logo_collisions
     00000010  ___bank_scene_menu_1_collisions    scene_menu_1_collisions
     00000010  ___bank_scene_menu_1_init          scene_menu_1_init
     00000010  ___bank_scene_room_07_actors       scene_room_07_actors
     00000010  ___bank_scene_room_07_triggers     scene_room_07_triggers
     00000010  ___bank_scene_room_14_actors       scene_room_14_actors
     00000010  ___bank_script_refresh_battle_ui   script_refresh_battle_ui
     00000010  ___bank_script_speech_bubble_tes   script_speech_bubble_test
     00000010  ___bank_sprite_candy_tileset       sprite_candy_tileset
     00000010  ___bank_sprite_player              sprite_player
     00000010  ___bank_trigger_48_interact        trigger_48_interact
     00000010  ___bank_trigger_49_interact        trigger_49_interact
     00000010  ___bank_trigger_53_interact        trigger_53_interact
     00000010  ___bank_trigger_54_interact        trigger_54_interact
     00000010  b_itoa_fmt                         vm_ui_a
     00000010  b_music_events_poll                music_manager
     00000010  b_music_init_driver                music_manager
     00000010  b_music_init_events                music_manager
     00000010  b_vm_music_mute                    vm_music
     00000010  b_vm_music_play                    vm_music
     00000010  b_vm_music_routine                 vm_music
     00000010  b_vm_music_setpos                  vm_music
     00000010  b_vm_music_stop                    vm_music
     00000010  b_vm_print_detect                  vm_gbprinter
     00000010  b_vm_print_overlay                 vm_gbprinter
     00000010  b_vm_projectile_launch             vm_projectiles
     00000010  b_vm_projectile_load_type          vm_projectiles
     00000010  b_vm_rtc_get                       vm_rtc
     00000010  b_vm_rtc_latch                     vm_rtc
     00000010  b_vm_rtc_set                       vm_rtc
     00000010  b_vm_rtc_start                     vm_rtc
     00000010  b_vm_scene_pop                     vm_scene
     00000010  b_vm_scene_pop_all                 vm_scene
     00000010  b_vm_scene_push                    vm_scene
     00000010  b_vm_scene_stack_reset             vm_scene
     00000010  b_vm_sfx_play                      vm_music
     00000010  b_vm_sound_mastervol               vm_music
     00000011  ___bank_VM_LOAD_SAVE               vm_load_save
     00000011  ___bank_actor_10_interact          actor_10_interact
     00000011  ___bank_actor_15_interact          actor_15_interact
     00000011  ___bank_actor_16_interact          actor_16_interact
     00000011  ___bank_actor_17_interact          actor_17_interact
     00000011  ___bank_actor_18_interact          actor_18_interact
     00000011  ___bank_actor_19_interact          actor_19_interact
     00000011  ___bank_actor_1_update             actor_1_update
     00000011  ___bank_actor_25_interact          actor_25_interact
     00000011  ___bank_actor_26_interact          actor_26_interact
     00000011  ___bank_actor_27_interact          actor_27_interact
     00000011  ___bank_actor_28_interact          actor_28_interact
     00000011  ___bank_actor_29_interact          actor_29_interact
ASxxxx Linker V03.00 + NoICE + sdld,  page 11.
Hexadecimal  [32-Bits]

Area                                    Addr        Size        Decimal Bytes (Attributes)
--------------------------------        ----        ----        ------- ----- ------------
.  .ABS.                            00000000    00000000 =           0. bytes (ABS,CON)

      Value  Global                              Global Defined In Module
      -----  --------------------------------   ------------------------
     00000011  ___bank_actor_39_update            actor_39_update
     00000011  ___bank_actor_9_interact           actor_9_interact
     00000011  ___bank_actor_pattern_handler_up   actor_pattern_handler_update
     00000011  ___bank_bg_battle2_test            bg_battle2_test
     00000011  ___bank_bg_battlemockup            bg_battlemockup
     00000011  ___bank_bg_gameover                bg_gameover
     00000011  ___bank_bg_intro01                 bg_intro01
     00000011  ___bank_bg_intro02                 bg_intro02
     00000011  ___bank_bg_intro03                 bg_intro03
     00000011  ___bank_bg_intro04                 bg_intro04
     00000011  ___bank_bg_intro05                 bg_intro05
     00000011  ___bank_bg_intro06                 bg_intro06
     00000011  ___bank_bg_intro07                 bg_intro07
     00000011  ___bank_bg_introtemplate           bg_introtemplate
     00000011  ___bank_bg_introtemplate_tileset   bg_introtemplate_tileset
     00000011  ___bank_bg_loadmenu                bg_loadmenu
     00000011  ___bank_bg_logo                    bg_logo
     00000011  ___bank_bg_room01                  bg_room01
     00000011  ___bank_bg_room02                  bg_room02
     00000011  ___bank_bg_room03                  bg_room03
     00000011  ___bank_bg_room04                  bg_room04
     00000011  ___bank_bg_room05                  bg_room05
     00000011  ___bank_bg_room06                  bg_room06
     00000011  ___bank_bg_room07_test_            bg_room07_test_
     00000011  ___bank_bg_room08                  bg_room08
     00000011  ___bank_bg_room09                  bg_room09
     00000011  ___bank_bg_room10                  bg_room10
     00000011  ___bank_bg_room11                  bg_room11
     00000011  ___bank_bg_room12                  bg_room12
     00000011  ___bank_bg_room13                  bg_room13
     00000011  ___bank_bg_room14                  bg_room14
     00000011  ___bank_bg_room15                  bg_room15
     00000011  ___bank_bg_room16                  bg_room16
     00000011  ___bank_bg_room17                  bg_room17
     00000011  ___bank_bg_room18                  bg_room18
     00000011  ___bank_bg_room19                  bg_room19
     00000011  ___bank_bg_room20                  bg_room20
     00000011  ___bank_bg_room21                  bg_room21
     00000011  ___bank_bg_room22                  bg_room22
     00000011  ___bank_bg_room23                  bg_room23
     00000011  ___bank_bg_room24                  bg_room24
     00000011  ___bank_bg_room25                  bg_room25
     00000011  ___bank_bg_tilebank_misc           bg_tilebank_misc
     00000011  ___bank_bg_tilebank_misc_tileset   bg_tilebank_misc_tileset
     00000011  ___bank_bg_tilebank_water          bg_tilebank_water
     00000011  ___bank_bootstrap_script           
     00000011  ___bank_frame_image                frame_image
     00000011  ___bank_palette_0                  palette_0
     00000011  ___bank_palette_1                  palette_1
     00000011  ___bank_palette_10                 palette_10
     00000011  ___bank_palette_11                 palette_11
ASxxxx Linker V03.00 + NoICE + sdld,  page 12.
Hexadecimal  [32-Bits]

Area                                    Addr        Size        Decimal Bytes (Attributes)
--------------------------------        ----        ----        ------- ----- ------------
.  .ABS.                            00000000    00000000 =           0. bytes (ABS,CON)

      Value  Global                              Global Defined In Module
      -----  --------------------------------   ------------------------
     00000011  ___bank_palette_12                 palette_12
     00000011  ___bank_palette_13                 palette_13
     00000011  ___bank_palette_14                 palette_14
     00000011  ___bank_palette_15                 palette_15
     00000011  ___bank_palette_16                 palette_16
     00000011  ___bank_palette_17                 palette_17
     00000011  ___bank_palette_18                 palette_18
     00000011  ___bank_palette_19                 palette_19
     00000011  ___bank_palette_2                  palette_2
     00000011  ___bank_palette_20                 palette_20
     00000011  ___bank_palette_21                 palette_21
     00000011  ___bank_palette_22                 palette_22
     00000011  ___bank_palette_3                  palette_3
     00000011  ___bank_palette_4                  palette_4
     00000011  ___bank_palette_5                  palette_5
     00000011  ___bank_palette_6                  palette_6
     00000011  ___bank_palette_7                  palette_7
     00000011  ___bank_palette_8                  palette_8
     00000011  ___bank_palette_9                  palette_9
     00000011  ___bank_scene_40                   scene_40
     00000011  ___bank_scene_40_init              scene_40_init
     00000011  ___bank_scene_41                   scene_41
     00000011  ___bank_scene_41_init              scene_41_init
     00000011  ___bank_scene_battle_test_         scene_battle_test_
     00000011  ___bank_scene_battle_test_1        scene_battle_test_1
     00000011  ___bank_scene_battle_test_1_acto   scene_battle_test_1_actors
     00000011  ___bank_scene_battle_test_2        scene_battle_test_2
     00000011  ___bank_scene_battle_test_2_init   scene_battle_test_2_init
     00000011  ___bank_scene_battle_test_2_p_hi   scene_battle_test_2_p_hit1
     00000011  ___bank_scene_battle_test_2_proj   scene_battle_test_2_projecti
     00000011  ___bank_scene_battle_test__p_hit   scene_battle_test__p_hit1
     00000011  ___bank_scene_battle_test__proje   scene_battle_test__projectil
     00000011  ___bank_scene_battle_test__sprit   scene_battle_test__sprites
     00000011  ___bank_scene_debug                scene_debug
     00000011  ___bank_scene_debug_init           scene_debug_init
     00000011  ___bank_scene_gameover             scene_gameover
     00000011  ___bank_scene_gameover_init        scene_gameover_init
     00000011  ___bank_scene_intro_01             scene_intro_01
     00000011  ___bank_scene_intro_01_init        scene_intro_01_init
     00000011  ___bank_scene_intro_02             scene_intro_02
     00000011  ___bank_scene_intro_03             scene_intro_03
     00000011  ___bank_scene_intro_03_init        scene_intro_03_init
     00000011  ___bank_scene_intro_04             scene_intro_04
     00000011  ___bank_scene_intro_04_init        scene_intro_04_init
     00000011  ___bank_scene_intro_05             scene_intro_05
     00000011  ___bank_scene_intro_05_init        scene_intro_05_init
     00000011  ___bank_scene_intro_06             scene_intro_06
     00000011  ___bank_scene_intro_06_init        scene_intro_06_init
     00000011  ___bank_scene_intro_07             scene_intro_07
     00000011  ___bank_scene_intro_07_init        scene_intro_07_init
     00000011  ___bank_scene_logo                 scene_logo
ASxxxx Linker V03.00 + NoICE + sdld,  page 13.
Hexadecimal  [32-Bits]

Area                                    Addr        Size        Decimal Bytes (Attributes)
--------------------------------        ----        ----        ------- ----- ------------
.  .ABS.                            00000000    00000000 =           0. bytes (ABS,CON)

      Value  Global                              Global Defined In Module
      -----  --------------------------------   ------------------------
     00000011  ___bank_scene_logo_init            scene_logo_init
     00000011  ___bank_scene_menu_1               scene_menu_1
     00000011  ___bank_scene_room_01              scene_room_01
     00000011  ___bank_scene_room_01_init         scene_room_01_init
     00000011  ___bank_scene_room_01_triggers     scene_room_01_triggers
     00000011  ___bank_scene_room_02              scene_room_02
     00000011  ___bank_scene_room_02_actors       scene_room_02_actors
     00000011  ___bank_scene_room_02_init         scene_room_02_init
     00000011  ___bank_scene_room_02_triggers     scene_room_02_triggers
     00000011  ___bank_scene_room_03              scene_room_03
     00000011  ___bank_scene_room_03_actors       scene_room_03_actors
     00000011  ___bank_scene_room_03_triggers     scene_room_03_triggers
     00000011  ___bank_scene_room_04              scene_room_04
     00000011  ___bank_scene_room_04_init         scene_room_04_init
     00000011  ___bank_scene_room_04_sprites      scene_room_04_sprites
     00000011  ___bank_scene_room_04_triggers     scene_room_04_triggers
     00000011  ___bank_scene_room_05              scene_room_05
     00000011  ___bank_scene_room_05_init         scene_room_05_init
     00000011  ___bank_scene_room_05_sprites      scene_room_05_sprites
     00000011  ___bank_scene_room_05_triggers     scene_room_05_triggers
     00000011  ___bank_scene_room_06              scene_room_06
     00000011  ___bank_scene_room_06_actors       scene_room_06_actors
     00000011  ___bank_scene_room_06_init         scene_room_06_init
     00000011  ___bank_scene_room_06_triggers     scene_room_06_triggers
     00000011  ___bank_scene_room_07              scene_room_07
     00000011  ___bank_scene_room_07_sprites      scene_room_07_sprites
     00000011  ___bank_scene_room_08              scene_room_08
     00000011  ___bank_scene_room_08_init         scene_room_08_init
     00000011  ___bank_scene_room_08_triggers     scene_room_08_triggers
     00000011  ___bank_scene_room_09              scene_room_09
     00000011  ___bank_scene_room_09_actors       scene_room_09_actors
     00000011  ___bank_scene_room_09_init         scene_room_09_init
     00000011  ___bank_scene_room_09_sprites      scene_room_09_sprites
     00000011  ___bank_scene_room_09_triggers     scene_room_09_triggers
     00000011  ___bank_scene_room_10              scene_room_10
     00000011  ___bank_scene_room_10_actors       scene_room_10_actors
     00000011  ___bank_scene_room_10_init         scene_room_10_init
     00000011  ___bank_scene_room_10_sprites      scene_room_10_sprites
     00000011  ___bank_scene_room_10_triggers     scene_room_10_triggers
     00000011  ___bank_scene_room_11              scene_room_11
     00000011  ___bank_scene_room_11_init         scene_room_11_init
     00000011  ___bank_scene_room_11_triggers     scene_room_11_triggers
     00000011  ___bank_scene_room_12              scene_room_12
     00000011  ___bank_scene_room_12_actors       scene_room_12_actors
     00000011  ___bank_scene_room_12_init         scene_room_12_init
     00000011  ___bank_scene_room_12_sprites      scene_room_12_sprites
     00000011  ___bank_scene_room_12_triggers     scene_room_12_triggers
     00000011  ___bank_scene_room_13              scene_room_13
     00000011  ___bank_scene_room_13_actors       scene_room_13_actors
     00000011  ___bank_scene_room_13_init         scene_room_13_init
     00000011  ___bank_scene_room_13_sprites      scene_room_13_sprites
ASxxxx Linker V03.00 + NoICE + sdld,  page 14.
Hexadecimal  [32-Bits]

Area                                    Addr        Size        Decimal Bytes (Attributes)
--------------------------------        ----        ----        ------- ----- ------------
.  .ABS.                            00000000    00000000 =           0. bytes (ABS,CON)

      Value  Global                              Global Defined In Module
      -----  --------------------------------   ------------------------
     00000011  ___bank_scene_room_13_triggers     scene_room_13_triggers
     00000011  ___bank_scene_room_14              scene_room_14
     00000011  ___bank_scene_room_14_init         scene_room_14_init
     00000011  ___bank_scene_room_14_sprites      scene_room_14_sprites
     00000011  ___bank_scene_room_14_triggers     scene_room_14_triggers
     00000011  ___bank_scene_room_15              scene_room_15
     00000011  ___bank_scene_room_15_init         scene_room_15_init
     00000011  ___bank_scene_room_15_triggers     scene_room_15_triggers
     00000011  ___bank_scene_room_16              scene_room_16
     00000011  ___bank_scene_room_16_actors       scene_room_16_actors
     00000011  ___bank_scene_room_16_init         scene_room_16_init
     00000011  ___bank_scene_room_16_sprites      scene_room_16_sprites
     00000011  ___bank_scene_room_16_triggers     scene_room_16_triggers
     00000011  ___bank_scene_room_17              scene_room_17
     00000011  ___bank_scene_room_17_init         scene_room_17_init
     00000011  ___bank_scene_room_17_triggers     scene_room_17_triggers
     00000011  ___bank_scene_room_18              scene_room_18
     00000011  ___bank_scene_room_18_init         scene_room_18_init
     00000011  ___bank_scene_room_18_triggers     scene_room_18_triggers
     00000011  ___bank_scene_room_19              scene_room_19
     00000011  ___bank_scene_room_19_init         scene_room_19_init
     00000011  ___bank_scene_room_19_triggers     scene_room_19_triggers
     00000011  ___bank_scene_room_20              scene_room_20
     00000011  ___bank_scene_room_20_init         scene_room_20_init
     00000011  ___bank_scene_room_21              scene_room_21
     00000011  ___bank_scene_room_21_init         scene_room_21_init
     00000011  ___bank_scene_room_22              scene_room_22
     00000011  ___bank_scene_room_22_init         scene_room_22_init
     00000011  ___bank_scene_room_23              scene_room_23
     00000011  ___bank_scene_room_23_init         scene_room_23_init
     00000011  ___bank_scene_room_24              scene_room_24
     00000011  ___bank_scene_room_24_init         scene_room_24_init
     00000011  ___bank_scene_room_25              scene_room_25
     00000011  ___bank_scene_room_25_init         scene_room_25_init
     00000011  ___bank_script_10                  script_10
     00000011  ___bank_script_8                   script_8
     00000011  ___bank_script_add_menu_to_overw   script_add_menu_to_overworl
     00000011  ___bank_script_engine_init         
     00000011  ___bank_script_input_0             script_input_0
     00000011  ___bank_script_input_1             script_input_1
     00000011  ___bank_script_input_2             script_input_2
     00000011  ___bank_script_input_3             script_input_3
     00000011  ___bank_script_input_4             script_input_4
     00000011  ___bank_script_input_5             script_input_5
     00000011  ___bank_script_input_6             script_input_6
     00000011  ___bank_sprite_battleui            sprite_battleui
     00000011  ___bank_sprite_battleuidebug       sprite_battleuidebug
     00000011  ___bank_sprite_battleuidebug_til   sprite_battleuidebug_tileset
     00000011  ___bank_sprite_blooky              sprite_blooky
     00000011  ___bank_sprite_blooky_tileset      sprite_blooky_tileset
     00000011  ___bank_sprite_candy               sprite_candy
ASxxxx Linker V03.00 + NoICE + sdld,  page 15.
Hexadecimal  [32-Bits]

Area                                    Addr        Size        Decimal Bytes (Attributes)
--------------------------------        ----        ----        ------- ----- ------------
.  .ABS.                            00000000    00000000 =           0. bytes (ABS,CON)

      Value  Global                              Global Defined In Module
      -----  --------------------------------   ------------------------
     00000011  ___bank_sprite_dummy               sprite_dummy
     00000011  ___bank_sprite_dummy_tileset       sprite_dummy_tileset
     00000011  ___bank_sprite_empty_tileset       sprite_empty_tileset
     00000011  ___bank_sprite_flowey              sprite_flowey
     00000011  ___bank_sprite_flowey_tileset      sprite_flowey_tileset
     00000011  ___bank_sprite_froggit_overworld   sprite_froggit_overworld_
     00000011  ___bank_sprite_froggit_overworld   sprite_froggit_overworld__ti
     00000011  ___bank_sprite_groundswitchround   sprite_groundswitchround
     00000011  ___bank_sprite_groundswitchround   sprite_groundswitchround_til
     00000011  ___bank_sprite_heart               sprite_heart
     00000011  ___bank_sprite_heart_tileset       sprite_heart_tileset
     00000011  ___bank_sprite_rock                sprite_rock
     00000011  ___bank_sprite_rock_tileset        sprite_rock_tileset
     00000011  ___bank_sprite_sign                sprite_sign
     00000011  ___bank_sprite_sign_tileset        sprite_sign_tileset
     00000011  ___bank_sprite_spikes              sprite_spikes
     00000011  ___bank_sprite_spikes_tileset      sprite_spikes_tileset
     00000011  ___bank_sprite_star                sprite_star
     00000011  ___bank_sprite_star_tileset        sprite_star_tileset
     00000011  ___bank_sprite_wallswitch          sprite_wallswitch
     00000011  ___bank_sprite_wallswitch_tilese   sprite_wallswitch_tileset
     00000011  ___bank_spritesheet_none           spritesheet_none
     00000011  ___bank_trigger_0_interact         trigger_0_interact
     00000011  ___bank_trigger_10_interact        trigger_10_interact
     00000011  ___bank_trigger_11_interact        trigger_11_interact
     00000011  ___bank_trigger_12_interact        trigger_12_interact
     00000011  ___bank_trigger_13_interact        trigger_13_interact
     00000011  ___bank_trigger_14_interact        trigger_14_interact
     00000011  ___bank_trigger_15_interact        trigger_15_interact
     00000011  ___bank_trigger_16_interact        trigger_16_interact
     00000011  ___bank_trigger_17_interact        trigger_17_interact
     00000011  ___bank_trigger_18_interact        trigger_18_interact
     00000011  ___bank_trigger_19_interact        trigger_19_interact
     00000011  ___bank_trigger_1_interact         trigger_1_interact
     00000011  ___bank_trigger_20_interact        trigger_20_interact
     00000011  ___bank_trigger_21_interact        trigger_21_interact
     00000011  ___bank_trigger_22_interact        trigger_22_interact
     00000011  ___bank_trigger_23_interact        trigger_23_interact
     00000011  ___bank_trigger_24_interact        trigger_24_interact
     00000011  ___bank_trigger_25_interact        trigger_25_interact
     00000011  ___bank_trigger_26_interact        trigger_26_interact
     00000011  ___bank_trigger_27_interact        trigger_27_interact
     00000011  ___bank_trigger_28_interact        trigger_28_interact
     00000011  ___bank_trigger_29_interact        trigger_29_interact
     00000011  ___bank_trigger_2_interact         trigger_2_interact
     00000011  ___bank_trigger_30_interact        trigger_30_interact
     00000011  ___bank_trigger_31_interact        trigger_31_interact
     00000011  ___bank_trigger_32_interact        trigger_32_interact
     00000011  ___bank_trigger_33_interact        trigger_33_interact
     00000011  ___bank_trigger_34_interact        trigger_34_interact
     00000011  ___bank_trigger_35_interact        trigger_35_interact
ASxxxx Linker V03.00 + NoICE + sdld,  page 16.
Hexadecimal  [32-Bits]

Area                                    Addr        Size        Decimal Bytes (Attributes)
--------------------------------        ----        ----        ------- ----- ------------
.  .ABS.                            00000000    00000000 =           0. bytes (ABS,CON)

      Value  Global                              Global Defined In Module
      -----  --------------------------------   ------------------------
     00000011  ___bank_trigger_36_interact        trigger_36_interact
     00000011  ___bank_trigger_38_interact        trigger_38_interact
     00000011  ___bank_trigger_39_interact        trigger_39_interact
     00000011  ___bank_trigger_3_interact         trigger_3_interact
     00000011  ___bank_trigger_40_interact        trigger_40_interact
     00000011  ___bank_trigger_41_interact        trigger_41_interact
     00000011  ___bank_trigger_42_interact        trigger_42_interact
     00000011  ___bank_trigger_43_interact        trigger_43_interact
     00000011  ___bank_trigger_44_interact        trigger_44_interact
     00000011  ___bank_trigger_45_interact        trigger_45_interact
     00000011  ___bank_trigger_46_interact        trigger_46_interact
     00000011  ___bank_trigger_47_interact        trigger_47_interact
     00000011  ___bank_trigger_4_interact         trigger_4_interact
     00000011  ___bank_trigger_51_interact        trigger_51_interact
     00000011  ___bank_trigger_52_interact        trigger_52_interact
     00000011  ___bank_trigger_55_interact        trigger_55_interact
     00000011  ___bank_trigger_56_interact        trigger_56_interact
     00000011  ___bank_trigger_5_interact         trigger_5_interact
     00000011  ___bank_trigger_6_interact         trigger_6_interact
     00000011  ___bank_trigger_7_interact         trigger_7_interact
     00000011  ___bank_trigger_8_interact         trigger_8_interact
     00000011  ___bank_trigger_9_interact         trigger_9_interact
     00000011  b_CGBZeroPalette                   palette
     00000011  b_SIO_init                         sio
     00000011  b_events_init                      events
     00000011  b_input_init                       input
     00000011  b_palette_init                     palette
     00000011  b_parallax_init                    parallax
     00000011  b_remove_LCD_ISRs                  interrupts
     00000011  b_restore_sram                     flasher
     00000011  b_restore_sram_bank                flasher
     00000011  b_save_sram                        flasher
     00000011  b_scroll_rect                      
     00000011  b_timers_init                      events
     00000011  b_vm_save_clear                    vm_load_save
     00000011  b_vm_save_peek                     vm_load_save
     00000011  l__EHL_TRAMPOLINE0              
     00000019  l__INITIALIZED                  
     00000019  l__INITIALIZER                  
     0000001C  __start_save                    
     00000027  l__GSINIT                       
     00000030  l__HEADER6                      
     0000004E  l__HEADER4                      
     00000082  l__HEADER10                     
     000001CB  l__CRASH_SCRATCH2               
     00000200  s__CODE                         
     00000C54  l__CODE                         
     00000E54  s__HOME                         
     0000197F  l__DATA                         
     00002000  _rROMB0                            
     00002C81  l__HOME                         
ASxxxx Linker V03.00 + NoICE + sdld,  page 17.
Hexadecimal  [32-Bits]

Area                                    Addr        Size        Decimal Bytes (Attributes)
--------------------------------        ----        ----        ------- ----- ------------
.  .ABS.                            00000000    00000000 =           0. bytes (ABS,CON)

      Value  Global                              Global Defined In Module
      -----  --------------------------------   ------------------------
     00003000  _rROMB1                            
     00003A29  l__CODE_17                      
     00003AD5  s__BASE                         
     00003AD5  s__CODE_0                       
     00003AD5  s__INITIALIZER                  
     00003AD5  s__LIT                          
     00003AEE  s__GSINIT                       
     00003B15  s__GSFINAL                      
     00003FFE  l__CODE_2                       
     00003FFF  l__CODE_1                       
     00003FFF  l__CODE_10                      
     00003FFF  l__CODE_14                      
     00003FFF  l__CODE_4                       
     00003FFF  l__CODE_5                       
     00003FFF  l__CODE_8                       
     00004000  _RTC_SELECT_REG                    vm_rtc
     00004000  _rRAMB                             
     00004000  l__CODE_11                      
     00004000  l__CODE_12                      
     00004000  l__CODE_13                      
     00004000  l__CODE_15                      
     00004000  l__CODE_16                      
     00004000  l__CODE_3                       
     00004000  l__CODE_6                       
     00004000  l__CODE_7                       
     00004000  l__CODE_9                       
     00006000  _RTC_LATCH_REG                     vm_rtc
     00008000  __VRAM                             
     00008000  __VRAM8000                         
     00008800  __VRAM8800                         
     00009000  __VRAM9000                         
     00009800  __SCRN0                            
     00009C00  __SCRN1                            
     0000A000  _RTC_VALUE_REG                     vm_rtc
     0000A000  __SRAM                             
     0000C000  __RAM                              
     0000C000  _shadow_OAM                     
     0000C0A0  s__DATA                         
     0000D000  __RAMBANK                          
     0000DA1F  s__BSS                          
     0000DA1F  s__INITIALIZED                  
     0000DA38  s__HEAP                         
     0000DF00  .STACK                          
     0000DF00  _shadow_OAM2                       absolute
     0000DFA0  _BkgPalette                        absolute
     0000DFE0  _vwf_tile_data                     absolute
     0000FE00  __OAMRAM                           
     0000FF00  _P1_REG                            
     0000FF00  __IO                               
     0000FF01  _SB_REG                            
     0000FF02  _SC_REG                            
ASxxxx Linker V03.00 + NoICE + sdld,  page 18.
Hexadecimal  [32-Bits]

Area                                    Addr        Size        Decimal Bytes (Attributes)
--------------------------------        ----        ----        ------- ----- ------------
.  .ABS.                            00000000    00000000 =           0. bytes (ABS,CON)

      Value  Global                              Global Defined In Module
      -----  --------------------------------   ------------------------
     0000FF04  _DIV_REG                           
     0000FF05  _TIMA_REG                          
     0000FF06  _TMA_REG                           
     0000FF07  _TAC_REG                           
     0000FF0F  _IF_REG                            
     0000FF10  _NR10_REG                          
     0000FF11  _NR11_REG                          
     0000FF12  _NR12_REG                          
     0000FF13  _NR13_REG                          
     0000FF14  _NR14_REG                          
     0000FF16  _NR21_REG                          
     0000FF17  _NR22_REG                          
     0000FF18  _NR23_REG                          
     0000FF19  _NR24_REG                          
     0000FF1A  _NR30_REG                          
     0000FF1B  _NR31_REG                          
     0000FF1C  _NR32_REG                          
     0000FF1D  _NR33_REG                          
     0000FF1E  _NR34_REG                          
     0000FF20  _NR41_REG                          
     0000FF21  _NR42_REG                          
     0000FF22  _NR43_REG                          
     0000FF23  _NR44_REG                          
     0000FF24  _NR50_REG                          
     0000FF25  _NR51_REG                          
     0000FF26  _NR52_REG                          
     0000FF30  _AUD3WAVE                          
     0000FF30  _PCM_SAMPLE                        
     0000FF30  __AUD3WAVERAM                      
     0000FF40  _LCDC_REG                          
     0000FF41  _STAT_REG                          
     0000FF42  _SCY_REG                           
     0000FF43  _SCX_REG                           
     0000FF44  _LY_REG                            
     0000FF45  _LYC_REG                           
     0000FF46  _DMA_REG                           
     0000FF47  _BGP_REG                           
     0000FF48  _OBP0_REG                          
     0000FF49  _OBP1_REG                          
     0000FF4A  _WY_REG                            
     0000FF4B  _WX_REG                            
     0000FF4D  _KEY1_REG                          
     0000FF4F  _VBK_REG                           
     0000FF51  _HDMA1_REG                         
     0000FF52  _HDMA2_REG                         
     0000FF53  _HDMA3_REG                         
     0000FF54  _HDMA4_REG                         
     0000FF55  _HDMA5_REG                         
     0000FF56  _RP_REG                            
     0000FF68  _BCPS_REG                          
     0000FF69  _BCPD_REG                          
ASxxxx Linker V03.00 + NoICE + sdld,  page 19.
Hexadecimal  [32-Bits]

Area                                    Addr        Size        Decimal Bytes (Attributes)
--------------------------------        ----        ----        ------- ----- ------------
.  .ABS.                            00000000    00000000 =           0. bytes (ABS,CON)

      Value  Global                              Global Defined In Module
      -----  --------------------------------   ------------------------
     0000FF6A  _OCPS_REG                          
     0000FF6B  _OCPD_REG                          
     0000FF70  _SVBK_REG                          
     0000FF76  _PCM12_REG                         
     0000FF77  _PCM34_REG                         
     0000FF80  .refresh_OAM                    
     0000FF80  __HRAM                             
     0000FFFF  _IE_REG                            
     00014000  s__CODE_1                       
     00024000  s__CODE_2                       
     00034000  s__CODE_3                       
     00044000  s__CODE_4                       
     00054000  s__CODE_5                       
     00064000  s__CODE_6                       
     00074000  s__CODE_7                       
     00084000  s__CODE_8                       
     00094000  s__CODE_9                       
     000A4000  s__CODE_10                      
     000B4000  s__CODE_11                      
     000C4000  s__CODE_12                      
     000D4000  s__CODE_13                      
     000E4000  s__CODE_14                      
     000F4000  s__CODE_15                      
     00104000  s__CODE_16                      
     00114000  s__CODE_17                      
ASxxxx Linker V03.00 + NoICE + sdld,  page 20.
Hexadecimal  [32-Bits]

Area                                    Addr        Size        Decimal Bytes (Attributes)
--------------------------------        ----        ----        ------- ----- ------------
_CODE                               00000200    00000C54 =        3156. bytes (REL,CON)

      Value  Global                              Global Defined In Module
      -----  --------------------------------   ------------------------
     00000200  ___HandleCrash                     
     0000020A  _SIO_send_byte                     
     0000021D  _SIO_receive                       
     0000022E  _SetTile                           
     0000023D  _set_win_tile_xy                   
     00000242  _set_bkg_tile_xy                   
     00000265  _GetWinAddr                        
     0000026D  _GetBkgAddr                        
     0000027B  _state_init                        
     00000280  _state_update                      
     000002A2  _ui_time_masks                     
     000002AA  _ui_print_shift_char               
     0000032D  _ui_draw_frame_row                 
     00000336  .ui_draw_frame_row                 
     0000035F  _script_cmds                       vm_instructions
     00000593  _save_signature                    game_signature
     00000597  _start_scene_x                     
     00000599  _start_scene_y                     
     0000059B  _start_scene_dir                   
     0000059C  _start_scene                       
     0000059F  _start_player_move_speed           
     000005A0  _start_player_anim_tick            
     000005A1  _ui_fonts                          
     000005AA  _core_reset_hook                   main
     000005B2  _main                              main
     000005BA  _state_start_fns                   
     000005CC  _state_update_fns                  
     000005DE  _hUGE_init_banked                  hUGEDriver_obj
     000005E2  _hUGE_init                         hUGEDriver_obj
     000005ED  _hUGE_mute_channel_banked          hUGEDriver_obj
     000005F1  _hUGE_mute_channel                 hUGEDriver_obj
     000005FE  _hUGE_set_position_banked          hUGEDriver_obj
     00000602  _hUGE_set_position                 hUGEDriver_obj
     0000060B  hUGE_init                          hUGEDriver_obj
     00000661  hUGE_mute_channel                  hUGEDriver_obj
     00000857  hUGE_set_position                  hUGEDriver_obj
     000009BF  _hUGE_dosound                      hUGEDriver_obj
     000009BF  _hUGE_dosound_banked               hUGEDriver_obj
     000009BF  hUGE_dosound                       hUGEDriver_obj
     00000CAE  _get_vram_byte                     
     00000CBB  _get_win_tile_xy                   
     00000CC3  _get_bkg_tile_xy                   
     00000CEA  _set_sprite_palette                CGB
     00000CEF  _set_bkg_palette                   CGB
     00000CF2  .set_palette                       CGB
     00000D11  _set_sprite_palette_entry          CGB
     00000D16  _set_bkg_palette_entry             CGB
     00000D19  .set_palette_entry                 CGB
     00000D35  _hide_sprites_range                Metasprites
     00000D65  .sgb_check                         
ASxxxx Linker V03.00 + NoICE + sdld,  page 21.
Hexadecimal  [32-Bits]

Area                                    Addr        Size        Decimal Bytes (Attributes)
--------------------------------        ----        ----        ------- ----- ------------
_CODE                               00000200    00000C54 =        3156. bytes (REL,CON)

      Value  Global                              Global Defined In Module
      -----  --------------------------------   ------------------------
     00000D65  _sgb_check                         
     00000DAD  _sgb_transfer                      
     00000DB2  .sgb_transfer                      
     00000DF3  ___move_metasprite                 Metasprites
     00000E32  _cpu_slow                          CGB
     00000E4D  _cpu_fast                          CGB

ASxxxx Linker V03.00 + NoICE + sdld,  page 22.
Hexadecimal  [32-Bits]

Area                                    Addr        Size        Decimal Bytes (Attributes)
--------------------------------        ----        ----        ------- ----- ------------
_HEADER0                            00000000    00000001 =           1. bytes (ABS,CON)

      Value  Global                              Global Defined In Module
      -----  --------------------------------   ------------------------
     00000020  .call_hl                           Runtime

ASxxxx Linker V03.00 + NoICE + sdld,  page 23.
Hexadecimal  [32-Bits]

Area                                    Addr        Size        Decimal Bytes (Attributes)
--------------------------------        ----        ----        ------- ----- ------------
_HEADER1                            00000000    00000005 =           5. bytes (ABS,CON)

      Value  Global                              Global Defined In Module
      -----  --------------------------------   ------------------------
     00000028  .MemsetSmall                       Runtime

ASxxxx Linker V03.00 + NoICE + sdld,  page 24.
Hexadecimal  [32-Bits]

Area                                    Addr        Size        Decimal Bytes (Attributes)
--------------------------------        ----        ----        ------- ----- ------------
_HEADER2                            00000000    00000007 =           7. bytes (ABS,CON)

      Value  Global                              Global Defined In Module
      -----  --------------------------------   ------------------------
     00000030  .MemcpySmall                       Runtime

ASxxxx Linker V03.00 + NoICE + sdld,  page 25.
Hexadecimal  [32-Bits]

Area                                    Addr        Size        Decimal Bytes (Attributes)
--------------------------------        ----        ----        ------- ----- ------------
_HEADER3                            00000000    00000008 =           8. bytes (ABS,CON)

      Value  Global                              Global Defined In Module
      -----  --------------------------------   ------------------------
ASxxxx Linker V03.00 + NoICE + sdld,  page 26.
Hexadecimal  [32-Bits]

Area                                    Addr        Size        Decimal Bytes (Attributes)
--------------------------------        ----        ----        ------- ----- ------------
_HEADER4                            00000000    0000004E =          78. bytes (ABS,CON)

      Value  Global                              Global Defined In Module
      -----  --------------------------------   ------------------------
     00000080  .int                               Runtime
     0000008F  _wait_int_handler                  Runtime
     0000009C  __standard_VBL_handler             Runtime
     000000AC  _refresh_OAM                       Runtime

ASxxxx Linker V03.00 + NoICE + sdld,  page 27.
Hexadecimal  [32-Bits]

Area                                    Addr        Size        Decimal Bytes (Attributes)
--------------------------------        ----        ----        ------- ----- ------------
_HEADER5                            00000000    00000002 =           2. bytes (ABS,CON)

      Value  Global                              Global Defined In Module
      -----  --------------------------------   ------------------------
ASxxxx Linker V03.00 + NoICE + sdld,  page 28.
Hexadecimal  [32-Bits]

Area                                    Addr        Size        Decimal Bytes (Attributes)
--------------------------------        ----        ----        ------- ----- ------------
_HEADER6                            00000000    00000030 =          48. bytes (ABS,CON)

      Value  Global                              Global Defined In Module
      -----  --------------------------------   ------------------------
ASxxxx Linker V03.00 + NoICE + sdld,  page 29.
Hexadecimal  [32-Bits]

Area                                    Addr        Size        Decimal Bytes (Attributes)
--------------------------------        ----        ----        ------- ----- ------------
_HEADER7                            00000000    00000006 =           6. bytes (ABS,CON)

      Value  Global                              Global Defined In Module
      -----  --------------------------------   ------------------------
ASxxxx Linker V03.00 + NoICE + sdld,  page 30.
Hexadecimal  [32-Bits]

Area                                    Addr        Size        Decimal Bytes (Attributes)
--------------------------------        ----        ----        ------- ----- ------------
_HEADER8                            00000000    00000003 =           3. bytes (ABS,CON)

      Value  Global                              Global Defined In Module
      -----  --------------------------------   ------------------------
ASxxxx Linker V03.00 + NoICE + sdld,  page 31.
Hexadecimal  [32-Bits]

Area                                    Addr        Size        Decimal Bytes (Attributes)
--------------------------------        ----        ----        ------- ----- ------------
_HEADER9                            00000000    00000001 =           1. bytes (ABS,CON)

      Value  Global                              Global Defined In Module
      -----  --------------------------------   ------------------------
ASxxxx Linker V03.00 + NoICE + sdld,  page 32.
Hexadecimal  [32-Bits]

Area                                    Addr        Size        Decimal Bytes (Attributes)
--------------------------------        ----        ----        ------- ----- ------------
_HEADERa                            00000000    00000001 =           1. bytes (ABS,CON)

      Value  Global                              Global Defined In Module
      -----  --------------------------------   ------------------------
ASxxxx Linker V03.00 + NoICE + sdld,  page 33.
Hexadecimal  [32-Bits]

Area                                    Addr        Size        Decimal Bytes (Attributes)
--------------------------------        ----        ----        ------- ----- ------------
_HEADERb                            00000000    00000001 =           1. bytes (ABS,CON)

      Value  Global                              Global Defined In Module
      -----  --------------------------------   ------------------------
ASxxxx Linker V03.00 + NoICE + sdld,  page 34.
Hexadecimal  [32-Bits]

Area                                    Addr        Size        Decimal Bytes (Attributes)
--------------------------------        ----        ----        ------- ----- ------------
_HEADERc                            00000000    00000002 =           2. bytes (ABS,CON)

      Value  Global                              Global Defined In Module
      -----  --------------------------------   ------------------------
ASxxxx Linker V03.00 + NoICE + sdld,  page 35.
Hexadecimal  [32-Bits]

Area                                    Addr        Size        Decimal Bytes (Attributes)
--------------------------------        ----        ----        ------- ----- ------------
_HEADERd                            00000000    00000001 =           1. bytes (ABS,CON)

      Value  Global                              Global Defined In Module
      -----  --------------------------------   ------------------------
ASxxxx Linker V03.00 + NoICE + sdld,  page 36.
Hexadecimal  [32-Bits]

Area                                    Addr        Size        Decimal Bytes (Attributes)
--------------------------------        ----        ----        ------- ----- ------------
_HEADERe                            00000000    00000001 =           1. bytes (ABS,CON)

      Value  Global                              Global Defined In Module
      -----  --------------------------------   ------------------------
ASxxxx Linker V03.00 + NoICE + sdld,  page 37.
Hexadecimal  [32-Bits]

Area                                    Addr        Size        Decimal Bytes (Attributes)
--------------------------------        ----        ----        ------- ----- ------------
_HEADERf                            00000000    00000002 =           2. bytes (ABS,CON)

      Value  Global                              Global Defined In Module
      -----  --------------------------------   ------------------------
ASxxxx Linker V03.00 + NoICE + sdld,  page 38.
Hexadecimal  [32-Bits]

Area                                    Addr        Size        Decimal Bytes (Attributes)
--------------------------------        ----        ----        ------- ----- ------------
_HEADER10                           00000000    00000082 =         130. bytes (ABS,CON)

      Value  Global                              Global Defined In Module
      -----  --------------------------------   ------------------------
     00000150  .reset                             Runtime
     00000150  _reset                             Runtime
     00000157  .code_start                        Runtime
     000001B7  _exit                              Runtime
     000001BB  _set_interrupts                    Runtime

ASxxxx Linker V03.00 + NoICE + sdld,  page 39.
Hexadecimal  [32-Bits]

Area                                    Addr        Size        Decimal Bytes (Attributes)
--------------------------------        ----        ----        ------- ----- ------------
_HEADER11                           00000000    00000001 =           1. bytes (ABS,CON)

      Value  Global                              Global Defined In Module
      -----  --------------------------------   ------------------------
ASxxxx Linker V03.00 + NoICE + sdld,  page 40.
Hexadecimal  [32-Bits]

Area                                    Addr        Size        Decimal Bytes (Attributes)
--------------------------------        ----        ----        ------- ----- ------------
_HOME                               00000E54    00002C81 =       11393. bytes (REL,CON)

      Value  Global                              Global Defined In Module
      -----  --------------------------------   ------------------------
     00000E54  .memset_simple                     Runtime
     00000E5D  .memcpy_simple                     Runtime
     00000E7A  .remove_VBL                        Runtime
     00000E7D  .remove_int                        Runtime
     00000E9A  .add_VBL                           Runtime
     00000E9D  .add_int                           Runtime
     00000EA8  .wait_vbl_done                     Runtime
     00000EA8  _wait_vbl_done                     Runtime
     00000EB8  .display_off                       Runtime
     00000EB8  _display_off                       Runtime
     00000ED0  _remove_VBL                        Runtime
     00000EDB  _add_VBL                           Runtime
     00000EE6  _actors_update                     actor
     000012EF  _SetBankedBkgData                  bankdata
     0000130B  _SetBankedSpriteData               bankdata
     00001327  _SetBankedBkgTiles                 bankdata
     00001343  _SetBankedWinTiles                 bankdata
     0000135F  _ReadBankedFarPtr                  bankdata
     00001386  _ReadBankedUWORD                   bankdata
     000013A2  _MemcpyBanked                      bankdata
     000013BE  _MemcpyVRAMBanked                  bankdata
     000013DA  _IndexOfFarPtr                     bankdata
     00001470  _camera_update                     camera
     000015A3  _load_animations                   data_manager
     00001602  _events_update                     events
     000016D4  _timers_update                     events
     0000175C  _input_update                      input
     0000178C  .sio_ISR                           
     000017E6  .timer_ISR                         
     000017FB  _simple_LCD_isr                    interrupts
     00001877  _fullscreen_LCD_isr                interrupts
     000018A3  _VBL_isr                           interrupts
     000018ED  _isqrt                             math
     00001943  _sine_wave                         math
     00001A43  _dir_lookup                        math
     00001A4B  _dir_angle_lookup                  math
     00001A4F  _hUGETrackerRoutine                music_manager
     00001A7B  _music_events_update               music_manager
     00001AFD  _music_play_isr                    music_manager
     00001BA3  _parallax_LCD_isr                  parallax
     00001BE0  _projectiles_update                projectiles
     0000207F  _projectiles_render                projectiles
     000021F2  _scroll_load_pending_row           scroll
     0000227E  _scroll_load_row                   scroll
     000022F8  _scroll_load_col                   scroll
     00002363  _scroll_load_pending_col           scroll
     000023F4  _set_bkg_submap                    
     00002437  _set_xy_win_submap                 
     00002464  .set_xy_win_submap                 
     0000246D  .set_xy_bkg_submap                 
ASxxxx Linker V03.00 + NoICE + sdld,  page 41.
Hexadecimal  [32-Bits]

Area                                    Addr        Size        Decimal Bytes (Attributes)
--------------------------------        ----        ----        ------- ----- ------------
_HOME                               00000E54    00002C81 =       11393. bytes (REL,CON)

      Value  Global                              Global Defined In Module
      -----  --------------------------------   ------------------------
     0000247C  .set_xy_submap                     
     000024C2  _sfx_play_isr                      sfx_player
     00002595  _on_SIO_receive                    sio
     000025D6  _SIO_update                        sio
     0000263D  _ui_update                         ui
     0000276C  _vm_sgb_transfer                   vm_sgb
     000027BA  _vm_load_text                      vm_ui
     00002A0F  _vm_switch                         vm
     00002B12  _vm_beginthread                    vm
     00002C37  _vm_rpn                            vm
     00003379  _vm_get_far                        vm
     000033E3  _vm_call_native                    vm
     000033F6  _VM_STEP                           vm
     00003464  _script_runner_update              vm
     000035CF  _fill_win_rect                     
     000035E1  _rand                              
     000035E1  _randw                             
     0000360C  _initrand                          
     0000360E  .initrand                          
     00003617  _get_bkg_data                      
     00003617  _get_win_data                      
     00003664  _get_sprite_data                   
     00003694  __mulsuchar                        mul
     0000369E  __muluschar                        mul
     000036A8  __mulschar                         mul
     000036BA  __muluchar                         mul
     000036C6  __mulint                           mul
     000036EC  _abs                               abs
     000036FB  _set_win_tiles                     
     0000370F  _set_tile_data                     
     00003714  _set_bkg_data                      
     00003714  _set_win_data                      
     0000371C  _set_sprite_data                   
     0000374C  _reverse                           reverse
     00003780  ___call__banked                    far_ptr
     0000379D  _to_far_ptr                        far_ptr
     000037D6  _add_LCD                           
     000037E1  .add_LCD                           
     000037E7  _remove_LCD                        
     000037F2  .remove_LCD                        
     000037F8  .fill_rect_wtt                     
     00003801  .fill_rect_btt                     
     0000384E  .copy_vram                         
     00003862  _get_data                          
     00003862  _set_data                          
     00003862  _vmemcpy                           
     00003875  _fill_bkg_rect                     
     00003887  .padup                             
     00003887  _waitpadup                         
     00003897  .jpad                              
     00003897  _joypad                            
ASxxxx Linker V03.00 + NoICE + sdld,  page 42.
Hexadecimal  [32-Bits]

Area                                    Addr        Size        Decimal Bytes (Attributes)
--------------------------------        ----        ----        ------- ----- ------------
_HOME                               00000E54    00002C81 =       11393. bytes (REL,CON)

      Value  Global                              Global Defined In Module
      -----  --------------------------------   ------------------------
     000038BF  _waitpad                           
     000038C2  .wait_pad                          
     000038C9  ___sdcc_call_hl                    call_hl
     000038CA  ___memcpy                          memcpy
     000038CA  _memcpy                            memcpy
     0000390D  _memset                            memset
     00003940  .set_xy_wtt                        SetTileMap
     00003949  .set_xy_btt                        SetTileMap
     00003958  .set_xy_tt                         SetTileMap
     0000399A  __divsuchar                        div
     000039A7  __modsuchar                        div
     000039B1  __divuschar                        div
     000039C3  __moduschar                        div
     000039D3  __divschar                         div
     000039DF  __modschar                         div
     000039E9  __divsint                          div
     000039FA  __modsint                          div
     00003A09  __divuchar                         div
     00003A15  __moduchar                         div
     00003A1F  __divuint                          div
     00003A30  __moduint                          div
     00003A3F  .div8                              div
     00003A3F  .mod8                              div
     00003A47  .div16                             div
     00003A47  .mod16                             div
     00003A7D  .divu8                             div
     00003A7D  .modu8                             div
     00003A80  .divu16                            div
     00003A80  .modu16                            div
     00003AC1  _set_bkg_tiles                     

ASxxxx Linker V03.00 + NoICE + sdld,  page 43.
Hexadecimal  [32-Bits]

Area                                    Addr        Size        Decimal Bytes (Attributes)
--------------------------------        ----        ----        ------- ----- ------------
_INITIALIZER                        00003AD5    00000019 =          25. bytes (REL,CON)

      Value  Global                              Global Defined In Module
      -----  --------------------------------   ------------------------
ASxxxx Linker V03.00 + NoICE + sdld,  page 44.
Hexadecimal  [32-Bits]

Area                                    Addr        Size        Decimal Bytes (Attributes)
--------------------------------        ----        ----        ------- ----- ------------
_GSINIT                             00003AEE    00000027 =          39. bytes (REL,CON)

      Value  Global                              Global Defined In Module
      -----  --------------------------------   ------------------------
     00003AEE  gsinit                             Runtime

ASxxxx Linker V03.00 + NoICE + sdld,  page 45.
Hexadecimal  [32-Bits]

Area                                    Addr        Size        Decimal Bytes (Attributes)
--------------------------------        ----        ----        ------- ----- ------------
_GSFINAL                            00003B15    00000001 =           1. bytes (REL,CON)

      Value  Global                              Global Defined In Module
      -----  --------------------------------   ------------------------
ASxxxx Linker V03.00 + NoICE + sdld,  page 46.
Hexadecimal  [32-Bits]

Area                                    Addr        Size        Decimal Bytes (Attributes)
--------------------------------        ----        ----        ------- ----- ------------
_DATA                               0000C0A0    0000197F =        6527. bytes (REL,CON)

      Value  Global                              Global Defined In Module
      -----  --------------------------------   ------------------------
     0000C0A0  __cpu                              Runtime
     0000C0A1  __is_GBA                           Runtime
     0000C0A2  .mode                              Runtime
     0000C0A3  .sys_time                          Runtime
     0000C0A3  _sys_time                          Runtime
     0000C0A5  .int_0x40                          Runtime
     0000C0B9  _actors                            actor
     0000C4FD  _actors_active_head                actor
     0000C4FF  _actors_active_tail                actor
     0000C501  _actors_inactive_head              actor
     0000C503  _screen_x                          actor
     0000C504  _screen_y                          actor
     0000C505  _invalid                           actor
     0000C507  _player_moving                     actor
     0000C508  _player_iframes                    actor
     0000C509  _player_collision_actor            actor
     0000C50B  _emote_actor                       actor
     0000C50D  _emote_timer                       actor
     0000C50E  _allocated_hardware_sprites        actor
     0000C51A  _camera_x                          camera
     0000C51C  _camera_y                          camera
     0000C51E  _camera_offset_x                   camera
     0000C51F  _camera_offset_y                   camera
     0000C520  _camera_deadzone_x                 camera
     0000C521  _camera_deadzone_y                 camera
     0000C522  _camera_settings                   camera
     0000C526  _current_scene                     data_manager
     0000C529  _image_bank                        data_manager
     0000C52A  _image_ptr                         data_manager
     0000C52C  _image_attr_bank                   data_manager
     0000C52D  _image_attr_ptr                    data_manager
     0000C52F  _collision_bank                    data_manager
     0000C530  _collision_ptr                     data_manager
     0000C532  _image_tile_width                  data_manager
     0000C533  _image_tile_height                 data_manager
     0000C534  _image_width                       data_manager
     0000C536  _image_height                      data_manager
     0000C538  _sprites_len                       data_manager
     0000C539  _actors_len                        data_manager
     0000C53A  _projectiles_len                   data_manager
     0000C53B  _player_sprite_len                 data_manager
     0000C53C  _scene_type                        data_manager
     0000C53D  _scene_LCD_type                    data_manager
     0000C53E  _scene_stack                       data_manager
     0000C57E  _scene_stack_ptr                   data_manager
     0000C580  _scene_sprites_base_tiles          data_manager
     0000C5C0  _input_events                      events
     0000C5E8  _input_slots                       events
     0000C5F0  _timer_events                      events
     0000C604  _timer_values                      events
ASxxxx Linker V03.00 + NoICE + sdld,  page 47.
Hexadecimal  [32-Bits]

Area                                    Addr        Size        Decimal Bytes (Attributes)
--------------------------------        ----        ----        ------- ----- ------------
_DATA                               0000C0A0    0000197F =        6527. bytes (REL,CON)

      Value  Global                              Global Defined In Module
      -----  --------------------------------   ------------------------
     0000C60C  _fade_running                      fade_manager
     0000C60D  _fade_frames_per_step              fade_manager
     0000C60E  _fade_timer                        fade_manager
     0000C616  _joypads                           input
     0000C61B  _frame_joy                         input
     0000C61C  _last_joy                          input
     0000C61D  _recent_joy                        input
     0000C61E  _SIO_status                        
     0000C61F  _link_byte_sent                    
     0000C620  _link_next_mode                    
     0000C621  _save_blob_size                    load_save
     0000C623  _routine_queue                     music_manager
     0000C627  _routine_queue_head                music_manager
     0000C628  _routine_queue_tail                music_manager
     0000C629  _music_events                      music_manager
     0000C63D  _music_current_track_bank          music_manager
     0000C63E  _music_mute_flag                   music_manager
     0000C63F  _music_mute_mask                   music_manager
     0000C640  _music_next_track                  music_manager
     0000C642  _music_current_track               music_manager
     0000C644  _music_play_isr_counter            music_manager
     0000C645  _music_play_isr_pause              music_manager
     0000C646  _music_global_mute_mask            music_manager
     0000C647  _music_sfx_priority                music_manager
     0000C648  _DMG_palette                       palette
     0000C64B  _SprPalette                        palette
     0000C68B  _parallax_rows                     parallax
     0000C69D  _parallax_row                      parallax
     0000C69F  _projectiles                       projectiles
     0000C758  _projectile_defs                   projectiles
     0000C7CB  _projectiles_active_head           projectiles
     0000C7CD  _projectiles_inactive_head         projectiles
     0000C7D4  _scroll_x                          scroll
     0000C7D6  _scroll_y                          scroll
     0000C7D8  _draw_scroll_x                     scroll
     0000C7DA  _draw_scroll_y                     scroll
     0000C7DC  _scroll_x_max                      scroll
     0000C7DE  _scroll_y_max                      scroll
     0000C7E0  _scroll_offset_x                   scroll
     0000C7E1  _scroll_offset_y                   scroll
     0000C7E2  _pending_h_x                       scroll
     0000C7E3  _pending_h_y                       scroll
     0000C7E4  _pending_h_i                       scroll
     0000C7E5  _pending_w_x                       scroll
     0000C7E6  _pending_w_y                       scroll
     0000C7E7  _pending_w_i                       scroll
     0000C7E8  _current_row                       scroll
     0000C7EA  _new_row                           scroll
     0000C7EC  _current_col                       scroll
     0000C7EE  _new_col                           scroll
     0000C7F0  .image_tile_width                  
ASxxxx Linker V03.00 + NoICE + sdld,  page 48.
Hexadecimal  [32-Bits]

Area                                    Addr        Size        Decimal Bytes (Attributes)
--------------------------------        ----        ----        ------- ----- ------------
_DATA                               0000C0A0    0000197F =        6527. bytes (REL,CON)

      Value  Global                              Global Defined In Module
      -----  --------------------------------   ------------------------
     0000C7F1  _sfx_play_bank                     sfx_player
     0000C7F2  _sfx_play_sample                   sfx_player
     0000C7F4  _sfx_frame_skip                    sfx_player
     0000C7F5  _link_operation_mode               sio
     0000C7F6  _link_packet                       sio
     0000C816  _link_packet_len                   sio
     0000C817  _link_packet_ptr                   sio
     0000C819  _link_packet_received              sio
     0000C81A  _link_packet_snd_len               sio
     0000C81B  _link_packet_snd_ptr               sio
     0000C81D  _link_packet_sent                  sio
     0000C81E  __is_CGB                           system
     0000C81F  __is_SGB                           system
     0000C820  __current_ram_bank                 system
     0000C821  _triggers                          trigger
     0000C919  _last_trigger_tx                   trigger
     0000C91A  _last_trigger_ty                   trigger
     0000C91B  _last_trigger                      trigger
     0000C91C  _win_pos_x                         ui
     0000C91D  _win_dest_pos_x                    ui
     0000C91E  _win_pos_y                         ui
     0000C91F  _win_dest_pos_y                    ui
     0000C920  _win_speed                         ui
     0000C921  _text_drawn                        ui
     0000C922  _current_text_speed                ui
     0000C923  _text_wait                         ui
     0000C924  _text_options                      ui
     0000C925  _text_in_speed                     ui
     0000C926  _text_out_speed                    ui
     0000C927  _text_draw_speed                   ui
     0000C928  _text_ff_joypad                    ui
     0000C929  _text_ff                           ui
     0000C92A  _text_bkg_fill                     ui
     0000C92B  _ui_text_data                      ui
     0000CA35  _vwf_current_mask                  ui
     0000CA36  _vwf_current_rotate                ui
     0000CA37  _vwf_inverse_map                   ui
     0000CA38  _vwf_direction                     ui
     0000CA39  _vwf_current_font_desc             ui
     0000CA41  _vwf_current_font_bank             ui
     0000CA42  _vwf_current_font_idx              ui
     0000CA43  _text_render_base_addr             ui
     0000CA45  _text_scroll_addr                  ui
     0000CA47  _text_scroll_width                 ui
     0000CA48  _text_scroll_height                ui
     0000CA49  _text_scroll_fill                  ui
     0000CA4A  _text_sound_mask                   ui
     0000CA4B  _text_sound_bank                   ui
     0000CA4C  _text_sound_data                   ui
     0000CA4E  _overlay_priority                  ui
     0000CA55  __itoa_fmt_len                     vm_ui_a
ASxxxx Linker V03.00 + NoICE + sdld,  page 49.
Hexadecimal  [32-Bits]

Area                                    Addr        Size        Decimal Bytes (Attributes)
--------------------------------        ----        ----        ------- ----- ------------
_DATA                               0000C0A0    0000197F =        6527. bytes (REL,CON)

      Value  Global                              Global Defined In Module
      -----  --------------------------------   ------------------------
     0000CA56  .itoa_fmt_buf                      vm_ui_a
     0000CA59  _CTXS                              vm
     0000CB89  _first_ctx                         vm
     0000CB8B  _free_ctxs                         vm
     0000CB8D  _old_executing_ctx                 vm
     0000CB8F  _executing_ctx                     vm
     0000CB91  _vm_lock_state                     vm
     0000CB92  _vm_loaded_state                   vm
     0000CB93  _vm_exception_code                 vm
     0000CB94  _vm_exception_params_length        vm
     0000CB95  _vm_exception_params_bank          vm
     0000CB96  _vm_exception_params_offset        vm
     0000CB99  _script_memory                     vm
     0000D99F  _grounded                          platform
     0000D9A0  _on_ladder                         platform
     0000D9A1  _pl_vel_x                          platform
     0000D9A3  _pl_vel_y                          platform
     0000D9A5  _plat_min_vel                      platform
     0000D9A7  _plat_walk_vel                     platform
     0000D9A9  _plat_climb_vel                    platform
     0000D9AB  _plat_run_vel                      platform
     0000D9AD  _plat_walk_acc                     platform
     0000D9AF  _plat_run_acc                      platform
     0000D9B1  _plat_dec                          platform
     0000D9B3  _plat_jump_vel                     platform
     0000D9B5  _plat_grav                         platform
     0000D9B7  _plat_hold_grav                    platform
     0000D9B9  _plat_max_fall_vel                 platform
     0000D9BB  _shooter_reached_end               shmup
     0000D9BC  _shooter_dest                      shmup
     0000D9BE  _shooter_direction                 shmup
     0000D9BF  _topdown_grid                      topdown
     0000D9C0  ___rand_seed                       
     0000D9DE  _hUGE_current_wave                 hUGEDriver_obj
     0000D9DE  hUGE_current_wave                  hUGEDriver_obj
     0000D9DF  _hUGE_mute_mask                    hUGEDriver_obj
     0000DA08  ___call_banked_addr                far_ptr
     0000DA08  ___call_banked_ptr                 far_ptr
     0000DA0A  ___call_banked_bank                far_ptr
     0000DA0C  .int_0x48                          
     0000DA1C  ___current_metasprite              Metasprites
     0000DA1E  ___current_base_tile               Metasprites

ASxxxx Linker V03.00 + NoICE + sdld,  page 50.
Hexadecimal  [32-Bits]

Area                                    Addr        Size        Decimal Bytes (Attributes)
--------------------------------        ----        ----        ------- ----- ------------
_INITIALIZED                        0000DA1F    00000019 =          25. bytes (REL,CON)

      Value  Global                              Global Defined In Module
      -----  --------------------------------   ------------------------
     0000DA1F  _fade_style                        fade_manager
     0000DA20  _game_time                         game_time
     0000DA21  _PRN_PKT_START                     gbprinter
     0000DA2F  _hide_sprites                      interrupts
     0000DA30  _show_actors_on_overlay            interrupts
     0000DA31  _overlay_cut_scanline              interrupts
     0000DA32  _triggers_len                      trigger
     0000DA33  _exchange_state                    vm_sio
     0000DA34  _last_hit_trigger                  pointnclick
     0000DA35  _shooter_scroll_speed              shmup
     0000DA36  ___render_shadow_OAM               Metasprites
     0000DA37  __map_tile_offset                  SetTileMap
ASxxxx Linker V03.00 + NoICE + sdld,  page 51.
Hexadecimal  [32-Bits]

Area                                    Addr        Size        Decimal Bytes (Attributes)
--------------------------------        ----        ----        ------- ----- ------------
_HRAM12                             00000000    00000003 =           3. bytes (ABS,CON)

      Value  Global                              Global Defined In Module
      -----  --------------------------------   ------------------------
     0000FF90  __current_bank                     Runtime
     0000FF92  __shadow_OAM_base                  Runtime

ASxxxx Linker V03.00 + NoICE + sdld,  page 52.
Hexadecimal  [32-Bits]

Area                                    Addr        Size        Decimal Bytes (Attributes)
--------------------------------        ----        ----        ------- ----- ------------
_EHL_TRAMPOLINE0                    00000000    00000011 =          17. bytes (ABS,CON)

      Value  Global                              Global Defined In Module
      -----  --------------------------------   ------------------------
     00000008  ___sdcc_bcall_ehl                  

ASxxxx Linker V03.00 + NoICE + sdld,  page 53.
Hexadecimal  [32-Bits]

Area                                    Addr        Size        Decimal Bytes (Attributes)
--------------------------------        ----        ----        ------- ----- ------------
_CODE_3                             00034000    00004000 =       16384. bytes (REL,CON)

      Value  Global                              Global Defined In Module
      -----  --------------------------------   ------------------------
     00034000  ___func_ACTOR                      actor
     00034000  _actors_init                       actor
     0003403A  _emote_offsets                     actor
     00034049  _emote_metasprite                  actor
     00034055  _player_init                       actor
     0003406A  _deactivate_actor                  actor
     000341DB  _activate_actor                    actor
     0003431A  _activate_actors_in_row            actor
     00034411  _activate_actors_in_col            actor
     00034562  _actor_set_frames                  actor
     000345B6  _actor_set_frame_offset            actor
     000345F3  _actor_get_frame_offset            actor
     00034606  _actor_set_anim_idle               actor
     00034634  _actor_set_anim_moving             actor
     00034665  _actor_set_dir                     actor
     000346CA  _actor_at_tile                     actor
     000347A0  _actor_in_front_of_player          actor
     00034887  _actor_overlapping_player          actor
     00034B20  _actor_overlapping_bb              actor
     00034D3F  _actors_handle_player_collision    actor
     00034DCA  _check_collision_in_direction      actor
     000355BA  ___func_scene_room_08_collisions   scene_room_08_collisions
     000355BA  _scene_room_08_collisions          scene_room_08_collisions
     00036D2A  _script_enter_battle               script_enter_battle
     00036D44  ___func_sprite_player_tileset      sprite_player_tileset
     00036D44  _sprite_player_tileset             sprite_player_tileset
     00036EC6  _platform_init                     platform
     0003707D  _platform_update                   platform

ASxxxx Linker V03.00 + NoICE + sdld,  page 54.
Hexadecimal  [32-Bits]

Area                                    Addr        Size        Decimal Bytes (Attributes)
--------------------------------        ----        ----        ------- ----- ------------
_CODE_17                            00114000    00003A29 =       14889. bytes (REL,CON)

      Value  Global                              Global Defined In Module
      -----  --------------------------------   ------------------------
     00114000  _bootstrap_script                  
     0011400B  _events_init                       events
     0011404B  _timers_init                       events
     0011408B  _restore_sram_bank                 flasher
     001140C5  _restore_sram                      flasher
     001140DB  _save_sram                         flasher
     0011410B  _input_init                        input
     00114131  _remove_LCD_ISRs                   interrupts
     00114152  _palette_init                      palette
     0011418B  _CGBZeroPalette                    palette
     001141A0  _parallax_init                     parallax
     001141C4  _scroll_rect                       
     00114201  _SIO_init                          sio
     0011422A  ___func_VM_LOAD_SAVE               vm_load_save
     0011422A  _vm_save_clear                     vm_load_save
     00114239  _vm_save_peek                      vm_load_save
     001142BB  _actor_1_update                    actor_1_update
     001142F9  _actor_10_interact                 actor_10_interact
     00114355  _actor_15_interact                 actor_15_interact
     00114390  _actor_16_interact                 actor_16_interact
     001143D6  _actor_17_interact                 actor_17_interact
     00114420  _actor_18_interact                 actor_18_interact
     0011444F  _actor_19_interact                 actor_19_interact
     001144E6  _actor_25_interact                 actor_25_interact
     00114537  _actor_26_interact                 actor_26_interact
     00114588  _actor_27_interact                 actor_27_interact
     001145E2  _actor_28_interact                 actor_28_interact
     00114629  _actor_29_interact                 actor_29_interact
     0011466C  _actor_39_update                   actor_39_update
     00114690  _actor_9_interact                  actor_9_interact
     001146EC  _actor_pattern_handler_update      actor_pattern_handler_update
     00114786  ___func_bg_battle2_test            bg_battle2_test
     00114786  _bg_battle2_test                   bg_battle2_test
     00114794  ___func_bg_battlemockup            bg_battlemockup
     00114794  _bg_battlemockup                   bg_battlemockup
     001147A2  ___func_bg_gameover                bg_gameover
     001147A2  _bg_gameover                       bg_gameover
     001147B0  ___func_bg_intro01                 bg_intro01
     001147B0  _bg_intro01                        bg_intro01
     001147BE  ___func_bg_intro02                 bg_intro02
     001147BE  _bg_intro02                        bg_intro02
     001147CC  ___func_bg_intro03                 bg_intro03
     001147CC  _bg_intro03                        bg_intro03
     001147DA  ___func_bg_intro04                 bg_intro04
     001147DA  _bg_intro04                        bg_intro04
     001147E8  ___func_bg_intro05                 bg_intro05
     001147E8  _bg_intro05                        bg_intro05
     001147F6  ___func_bg_intro06                 bg_intro06
     001147F6  _bg_intro06                        bg_intro06
     00114804  ___func_bg_intro07                 bg_intro07
ASxxxx Linker V03.00 + NoICE + sdld,  page 55.
Hexadecimal  [32-Bits]

Area                                    Addr        Size        Decimal Bytes (Attributes)
--------------------------------        ----        ----        ------- ----- ------------
_CODE_17                            00114000    00003A29 =       14889. bytes (REL,CON)

      Value  Global                              Global Defined In Module
      -----  --------------------------------   ------------------------
     00114804  _bg_intro07                        bg_intro07
     00114812  ___func_bg_introtemplate_tileset   bg_introtemplate_tileset
     00114812  _bg_introtemplate_tileset          bg_introtemplate_tileset
     00114834  ___func_bg_introtemplate           bg_introtemplate
     00114834  _bg_introtemplate                  bg_introtemplate
     00114842  ___func_bg_loadmenu                bg_loadmenu
     00114842  _bg_loadmenu                       bg_loadmenu
     00114850  ___func_bg_logo                    bg_logo
     00114850  _bg_logo                           bg_logo
     0011485E  ___func_bg_room01                  bg_room01
     0011485E  _bg_room01                         bg_room01
     0011486C  ___func_bg_room02                  bg_room02
     0011486C  _bg_room02                         bg_room02
     0011487A  ___func_bg_room03                  bg_room03
     0011487A  _bg_room03                         bg_room03
     00114888  ___func_bg_room04                  bg_room04
     00114888  _bg_room04                         bg_room04
     00114896  ___func_bg_room05                  bg_room05
     00114896  _bg_room05                         bg_room05
     001148A4  ___func_bg_room06                  bg_room06
     001148A4  _bg_room06                         bg_room06
     001148B2  ___func_bg_room07_test_            bg_room07_test_
     001148B2  _bg_room07_test_                   bg_room07_test_
     001148C0  ___func_bg_room08                  bg_room08
     001148C0  _bg_room08                         bg_room08
     001148CE  ___func_bg_room09                  bg_room09
     001148CE  _bg_room09                         bg_room09
     001148DC  ___func_bg_room10                  bg_room10
     001148DC  _bg_room10                         bg_room10
     001148EA  ___func_bg_room11                  bg_room11
     001148EA  _bg_room11                         bg_room11
     001148F8  ___func_bg_room12                  bg_room12
     001148F8  _bg_room12                         bg_room12
     00114906  ___func_bg_room13                  bg_room13
     00114906  _bg_room13                         bg_room13
     00114914  ___func_bg_room14                  bg_room14
     00114914  _bg_room14                         bg_room14
     00114922  ___func_bg_room15                  bg_room15
     00114922  _bg_room15                         bg_room15
     00114930  ___func_bg_room16                  bg_room16
     00114930  _bg_room16                         bg_room16
     0011493E  ___func_bg_room17                  bg_room17
     0011493E  _bg_room17                         bg_room17
     0011494C  ___func_bg_room18                  bg_room18
     0011494C  _bg_room18                         bg_room18
     0011495A  ___func_bg_room19                  bg_room19
     0011495A  _bg_room19                         bg_room19
     00114968  ___func_bg_room20                  bg_room20
     00114968  _bg_room20                         bg_room20
     00114976  ___func_bg_room21                  bg_room21
     00114976  _bg_room21                         bg_room21
ASxxxx Linker V03.00 + NoICE + sdld,  page 56.
Hexadecimal  [32-Bits]

Area                                    Addr        Size        Decimal Bytes (Attributes)
--------------------------------        ----        ----        ------- ----- ------------
_CODE_17                            00114000    00003A29 =       14889. bytes (REL,CON)

      Value  Global                              Global Defined In Module
      -----  --------------------------------   ------------------------
     00114984  ___func_bg_room22                  bg_room22
     00114984  _bg_room22                         bg_room22
     00114992  ___func_bg_room23                  bg_room23
     00114992  _bg_room23                         bg_room23
     001149A0  ___func_bg_room24                  bg_room24
     001149A0  _bg_room24                         bg_room24
     001149AE  ___func_bg_room25                  bg_room25
     001149AE  _bg_room25                         bg_room25
     001149BC  ___func_bg_tilebank_misc_tileset   bg_tilebank_misc_tileset
     001149BC  _bg_tilebank_misc_tileset          bg_tilebank_misc_tileset
     00114A4E  ___func_bg_tilebank_misc           bg_tilebank_misc
     00114A4E  _bg_tilebank_misc                  bg_tilebank_misc
     00114A5C  ___func_bg_tilebank_water          bg_tilebank_water
     00114A5C  _bg_tilebank_water                 bg_tilebank_water
     00114A6A  ___func_frame_image                frame_image
     00114A6A  _frame_image                       frame_image
     00114AFA  ___func_palette_0                  palette_0
     00114AFA  _palette_0                         palette_0
     00114B3D  ___func_palette_1                  palette_1
     00114B3D  _palette_1                         palette_1
     00114B80  ___func_palette_10                 palette_10
     00114B80  _palette_10                        palette_10
     00114BC3  ___func_palette_11                 palette_11
     00114BC3  _palette_11                        palette_11
     00114C06  ___func_palette_12                 palette_12
     00114C06  _palette_12                        palette_12
     00114C49  ___func_palette_13                 palette_13
     00114C49  _palette_13                        palette_13
     00114C8C  ___func_palette_14                 palette_14
     00114C8C  _palette_14                        palette_14
     00114CCF  ___func_palette_15                 palette_15
     00114CCF  _palette_15                        palette_15
     00114D12  ___func_palette_16                 palette_16
     00114D12  _palette_16                        palette_16
     00114D55  ___func_palette_17                 palette_17
     00114D55  _palette_17                        palette_17
     00114D98  ___func_palette_18                 palette_18
     00114D98  _palette_18                        palette_18
     00114DDB  ___func_palette_19                 palette_19
     00114DDB  _palette_19                        palette_19
     00114E1E  ___func_palette_2                  palette_2
     00114E1E  _palette_2                         palette_2
     00114E61  ___func_palette_20                 palette_20
     00114E61  _palette_20                        palette_20
     00114EA4  ___func_palette_21                 palette_21
     00114EA4  _palette_21                        palette_21
     00114EE7  ___func_palette_22                 palette_22
     00114EE7  _palette_22                        palette_22
     00114F2A  ___func_palette_3                  palette_3
     00114F2A  _palette_3                         palette_3
     00114F6D  ___func_palette_4                  palette_4
ASxxxx Linker V03.00 + NoICE + sdld,  page 57.
Hexadecimal  [32-Bits]

Area                                    Addr        Size        Decimal Bytes (Attributes)
--------------------------------        ----        ----        ------- ----- ------------
_CODE_17                            00114000    00003A29 =       14889. bytes (REL,CON)

      Value  Global                              Global Defined In Module
      -----  --------------------------------   ------------------------
     00114F6D  _palette_4                         palette_4
     00114FB0  ___func_palette_5                  palette_5
     00114FB0  _palette_5                         palette_5
     00114FF3  ___func_palette_6                  palette_6
     00114FF3  _palette_6                         palette_6
     00115036  ___func_palette_7                  palette_7
     00115036  _palette_7                         palette_7
     00115079  ___func_palette_8                  palette_8
     00115079  _palette_8                         palette_8
     001150BC  ___func_palette_9                  palette_9
     001150BC  _palette_9                         palette_9
     001150FF  _scene_40_init                     scene_40_init
     00115115  ___func_scene_40                   scene_40
     00115115  _scene_40                          scene_40
     00115150  _scene_41_init                     scene_41_init
     00115166  ___func_scene_41                   scene_41
     00115166  _scene_41                          scene_41
     001151A1  _scene_battle_test__p_hit1         scene_battle_test__p_hit1
     001151D8  ___func_scene_battle_test__proje   scene_battle_test__projectil
     001151D8  _scene_battle_test__projectiles    scene_battle_test__projectil
     001151EF  ___func_scene_battle_test__sprit   scene_battle_test__sprites
     001151EF  _scene_battle_test__sprites        scene_battle_test__sprites
     001151F8  ___func_scene_battle_test_         scene_battle_test_
     001151F8  _scene_battle_test_                scene_battle_test_
     00115233  ___func_scene_battle_test_1_acto   scene_battle_test_1_actors
     00115233  _scene_battle_test_1_actors        scene_battle_test_1_actors
     0011529B  ___func_scene_battle_test_1        scene_battle_test_1
     0011529B  _scene_battle_test_1               scene_battle_test_1
     001152D6  _scene_battle_test_2_init          scene_battle_test_2_init
     00115319  _scene_battle_test_2_p_hit1        scene_battle_test_2_p_hit1
     00115372  ___func_scene_battle_test_2_proj   scene_battle_test_2_projecti
     00115372  _scene_battle_test_2_projectiles   scene_battle_test_2_projecti
     00115389  ___func_scene_battle_test_2        scene_battle_test_2
     00115389  _scene_battle_test_2               scene_battle_test_2
     001153C4  _scene_debug_init                  scene_debug_init
     001153FB  ___func_scene_debug                scene_debug
     001153FB  _scene_debug                       scene_debug
     00115436  _scene_gameover_init               scene_gameover_init
     00115454  ___func_scene_gameover             scene_gameover
     00115454  _scene_gameover                    scene_gameover
     0011548F  _scene_intro_01_init               scene_intro_01_init
     001154FB  ___func_scene_intro_01             scene_intro_01
     001154FB  _scene_intro_01                    scene_intro_01
     00115536  ___func_scene_intro_02             scene_intro_02
     00115536  _scene_intro_02                    scene_intro_02
     00115571  _scene_intro_03_init               scene_intro_03_init
     001155CD  ___func_scene_intro_03             scene_intro_03
     001155CD  _scene_intro_03                    scene_intro_03
     00115608  _scene_intro_04_init               scene_intro_04_init
     00115664  ___func_scene_intro_04             scene_intro_04
     00115664  _scene_intro_04                    scene_intro_04
ASxxxx Linker V03.00 + NoICE + sdld,  page 58.
Hexadecimal  [32-Bits]

Area                                    Addr        Size        Decimal Bytes (Attributes)
--------------------------------        ----        ----        ------- ----- ------------
_CODE_17                            00114000    00003A29 =       14889. bytes (REL,CON)

      Value  Global                              Global Defined In Module
      -----  --------------------------------   ------------------------
     0011569F  _scene_intro_05_init               scene_intro_05_init
     001156FB  ___func_scene_intro_05             scene_intro_05
     001156FB  _scene_intro_05                    scene_intro_05
     00115736  _scene_intro_06_init               scene_intro_06_init
     00115792  ___func_scene_intro_06             scene_intro_06
     00115792  _scene_intro_06                    scene_intro_06
     001157CD  _scene_intro_07_init               scene_intro_07_init
     00115829  ___func_scene_intro_07             scene_intro_07
     00115829  _scene_intro_07                    scene_intro_07
     00115864  _scene_logo_init                   scene_logo_init
     001158A8  ___func_scene_logo                 scene_logo
     001158A8  _scene_logo                        scene_logo
     001158E3  ___func_scene_menu_1               scene_menu_1
     001158E3  _scene_menu_1                      scene_menu_1
     0011591E  _scene_room_01_init                scene_room_01_init
     00115952  ___func_scene_room_01_triggers     scene_room_01_triggers
     00115952  _scene_room_01_triggers            scene_room_01_triggers
     00115962  ___func_scene_room_01              scene_room_01
     00115962  _scene_room_01                     scene_room_01
     0011599D  ___func_scene_room_02_actors       scene_room_02_actors
     0011599D  _scene_room_02_actors              scene_room_02_actors
     001159D1  _scene_room_02_init                scene_room_02_init
     001159E7  ___func_scene_room_02_triggers     scene_room_02_triggers
     001159E7  _scene_room_02_triggers            scene_room_02_triggers
     001159F7  ___func_scene_room_02              scene_room_02
     001159F7  _scene_room_02                     scene_room_02
     00115A32  ___func_scene_room_03_actors       scene_room_03_actors
     00115A32  _scene_room_03_actors              scene_room_03_actors
     00115A66  ___func_scene_room_03_triggers     scene_room_03_triggers
     00115A66  _scene_room_03_triggers            scene_room_03_triggers
     00115A76  ___func_scene_room_03              scene_room_03
     00115A76  _scene_room_03                     scene_room_03
     00115AB1  _scene_room_04_init                scene_room_04_init
     00115B03  ___func_scene_room_04_sprites      scene_room_04_sprites
     00115B03  _scene_room_04_sprites             scene_room_04_sprites
     00115B0C  ___func_scene_room_04_triggers     scene_room_04_triggers
     00115B0C  _scene_room_04_triggers            scene_room_04_triggers
     00115B1C  ___func_scene_room_04              scene_room_04
     00115B1C  _scene_room_04                     scene_room_04
     00115B57  _scene_room_05_init                scene_room_05_init
     00115B9D  ___func_scene_room_05_sprites      scene_room_05_sprites
     00115B9D  _scene_room_05_sprites             scene_room_05_sprites
     00115BA9  ___func_scene_room_05_triggers     scene_room_05_triggers
     00115BA9  _scene_room_05_triggers            scene_room_05_triggers
     00115BB9  ___func_scene_room_05              scene_room_05
     00115BB9  _scene_room_05                     scene_room_05
     00115BF4  ___func_scene_room_06_actors       scene_room_06_actors
     00115BF4  _scene_room_06_actors              scene_room_06_actors
     00115C28  _scene_room_06_init                scene_room_06_init
     00115C3E  ___func_scene_room_06_triggers     scene_room_06_triggers
     00115C3E  _scene_room_06_triggers            scene_room_06_triggers
ASxxxx Linker V03.00 + NoICE + sdld,  page 59.
Hexadecimal  [32-Bits]

Area                                    Addr        Size        Decimal Bytes (Attributes)
--------------------------------        ----        ----        ------- ----- ------------
_CODE_17                            00114000    00003A29 =       14889. bytes (REL,CON)

      Value  Global                              Global Defined In Module
      -----  --------------------------------   ------------------------
     00115C4E  ___func_scene_room_06              scene_room_06
     00115C4E  _scene_room_06                     scene_room_06
     00115C89  ___func_scene_room_07_sprites      scene_room_07_sprites
     00115C89  _scene_room_07_sprites             scene_room_07_sprites
     00115C8C  ___func_scene_room_07              scene_room_07
     00115C8C  _scene_room_07                     scene_room_07
     00115CC7  _scene_room_08_init                scene_room_08_init
     00115CDD  ___func_scene_room_08_triggers     scene_room_08_triggers
     00115CDD  _scene_room_08_triggers            scene_room_08_triggers
     00115CED  ___func_scene_room_08              scene_room_08
     00115CED  _scene_room_08                     scene_room_08
     00115D28  ___func_scene_room_09_actors       scene_room_09_actors
     00115D28  _scene_room_09_actors              scene_room_09_actors
     00115D90  _scene_room_09_init                scene_room_09_init
     00115DA6  ___func_scene_room_09_sprites      scene_room_09_sprites
     00115DA6  _scene_room_09_sprites             scene_room_09_sprites
     00115DAC  ___func_scene_room_09_triggers     scene_room_09_triggers
     00115DAC  _scene_room_09_triggers            scene_room_09_triggers
     00115DB4  ___func_scene_room_09              scene_room_09
     00115DB4  _scene_room_09                     scene_room_09
     00115DEF  ___func_scene_room_10_actors       scene_room_10_actors
     00115DEF  _scene_room_10_actors              scene_room_10_actors
     00115E57  _scene_room_10_init                scene_room_10_init
     00115E6D  ___func_scene_room_10_sprites      scene_room_10_sprites
     00115E6D  _scene_room_10_sprites             scene_room_10_sprites
     00115E73  ___func_scene_room_10_triggers     scene_room_10_triggers
     00115E73  _scene_room_10_triggers            scene_room_10_triggers
     00115E8B  ___func_scene_room_10              scene_room_10
     00115E8B  _scene_room_10                     scene_room_10
     00115EC6  _scene_room_11_init                scene_room_11_init
     00115EDC  ___func_scene_room_11_triggers     scene_room_11_triggers
     00115EDC  _scene_room_11_triggers            scene_room_11_triggers
     00115EEC  ___func_scene_room_11              scene_room_11
     00115EEC  _scene_room_11                     scene_room_11
     00115F27  ___func_scene_room_12_actors       scene_room_12_actors
     00115F27  _scene_room_12_actors              scene_room_12_actors
     00115F8F  _scene_room_12_init                scene_room_12_init
     00115FA5  ___func_scene_room_12_sprites      scene_room_12_sprites
     00115FA5  _scene_room_12_sprites             scene_room_12_sprites
     00115FAB  ___func_scene_room_12_triggers     scene_room_12_triggers
     00115FAB  _scene_room_12_triggers            scene_room_12_triggers
     00115FBB  ___func_scene_room_12              scene_room_12
     00115FBB  _scene_room_12                     scene_room_12
     00115FF6  ___func_scene_room_13_actors       scene_room_13_actors
     00115FF6  _scene_room_13_actors              scene_room_13_actors
     0011605E  _scene_room_13_init                scene_room_13_init
     00116074  ___func_scene_room_13_sprites      scene_room_13_sprites
     00116074  _scene_room_13_sprites             scene_room_13_sprites
     00116077  ___func_scene_room_13_triggers     scene_room_13_triggers
     00116077  _scene_room_13_triggers            scene_room_13_triggers
     00116087  ___func_scene_room_13              scene_room_13
ASxxxx Linker V03.00 + NoICE + sdld,  page 60.
Hexadecimal  [32-Bits]

Area                                    Addr        Size        Decimal Bytes (Attributes)
--------------------------------        ----        ----        ------- ----- ------------
_CODE_17                            00114000    00003A29 =       14889. bytes (REL,CON)

      Value  Global                              Global Defined In Module
      -----  --------------------------------   ------------------------
     00116087  _scene_room_13                     scene_room_13
     001160C2  _scene_room_14_init                scene_room_14_init
     001160D8  ___func_scene_room_14_sprites      scene_room_14_sprites
     001160D8  _scene_room_14_sprites             scene_room_14_sprites
     001160DB  ___func_scene_room_14_triggers     scene_room_14_triggers
     001160DB  _scene_room_14_triggers            scene_room_14_triggers
     001160EB  ___func_scene_room_14              scene_room_14
     001160EB  _scene_room_14                     scene_room_14
     00116126  _scene_room_15_init                scene_room_15_init
     0011613C  ___func_scene_room_15_triggers     scene_room_15_triggers
     0011613C  _scene_room_15_triggers            scene_room_15_triggers
     0011614C  ___func_scene_room_15              scene_room_15
     0011614C  _scene_room_15                     scene_room_15
     00116187  ___func_scene_room_16_actors       scene_room_16_actors
     00116187  _scene_room_16_actors              scene_room_16_actors
     001161BB  _scene_room_16_init                scene_room_16_init
     001161D1  ___func_scene_room_16_sprites      scene_room_16_sprites
     001161D1  _scene_room_16_sprites             scene_room_16_sprites
     001161D4  ___func_scene_room_16_triggers     scene_room_16_triggers
     001161D4  _scene_room_16_triggers            scene_room_16_triggers
     001161EC  ___func_scene_room_16              scene_room_16
     001161EC  _scene_room_16                     scene_room_16
     00116227  _scene_room_17_init                scene_room_17_init
     0011623D  ___func_scene_room_17_triggers     scene_room_17_triggers
     0011623D  _scene_room_17_triggers            scene_room_17_triggers
     00116245  ___func_scene_room_17              scene_room_17
     00116245  _scene_room_17                     scene_room_17
     00116280  _scene_room_18_init                scene_room_18_init
     00116296  ___func_scene_room_18_triggers     scene_room_18_triggers
     00116296  _scene_room_18_triggers            scene_room_18_triggers
     001162A6  ___func_scene_room_18              scene_room_18
     001162A6  _scene_room_18                     scene_room_18
     001162E1  _scene_room_19_init                scene_room_19_init
     001162F7  ___func_scene_room_19_triggers     scene_room_19_triggers
     001162F7  _scene_room_19_triggers            scene_room_19_triggers
     001162FF  ___func_scene_room_19              scene_room_19
     001162FF  _scene_room_19                     scene_room_19
     0011633A  _scene_room_20_init                scene_room_20_init
     00116350  ___func_scene_room_20              scene_room_20
     00116350  _scene_room_20                     scene_room_20
     0011638B  _scene_room_21_init                scene_room_21_init
     001163A1  ___func_scene_room_21              scene_room_21
     001163A1  _scene_room_21                     scene_room_21
     001163DC  _scene_room_22_init                scene_room_22_init
     001163F2  ___func_scene_room_22              scene_room_22
     001163F2  _scene_room_22                     scene_room_22
     0011642D  _scene_room_23_init                scene_room_23_init
     00116443  ___func_scene_room_23              scene_room_23
     00116443  _scene_room_23                     scene_room_23
     0011647E  _scene_room_24_init                scene_room_24_init
     00116494  ___func_scene_room_24              scene_room_24
ASxxxx Linker V03.00 + NoICE + sdld,  page 61.
Hexadecimal  [32-Bits]

Area                                    Addr        Size        Decimal Bytes (Attributes)
--------------------------------        ----        ----        ------- ----- ------------
_CODE_17                            00114000    00003A29 =       14889. bytes (REL,CON)

      Value  Global                              Global Defined In Module
      -----  --------------------------------   ------------------------
     00116494  _scene_room_24                     scene_room_24
     001164CF  _scene_room_25_init                scene_room_25_init
     001164E5  ___func_scene_room_25              scene_room_25
     001164E5  _scene_room_25                     scene_room_25
     00116520  _script_10                         script_10
     0011652C  _script_8                          script_8
     00116547  _script_add_menu_to_overworl       script_add_menu_to_overworl
     00116551  _script_engine_init                
     00116599  _script_input_0                    script_input_0
     00116619  _script_input_1                    script_input_1
     00116641  _script_input_2                    script_input_2
     001166A0  _script_input_3                    script_input_3
     001166E3  _script_input_4                    script_input_4
     00116730  _script_input_5                    script_input_5
     0011677D  _script_input_6                    script_input_6
     00116796  ___func_sprite_battleui            sprite_battleui
     00116796  _sprite_battleui_metasprite_0      sprite_battleui
     001167AA  _sprite_battleui_metasprite_1      sprite_battleui
     001167BE  _sprite_battleui_metasprite_2      sprite_battleui
     001167D2  _sprite_battleui_metasprite_3      sprite_battleui
     001167E6  _sprite_battleui_metasprites       sprite_battleui
     001167EE  _sprite_battleui_animations        sprite_battleui
     001167FE  _sprite_battleui_animations_look   sprite_battleui
     00116800  _sprite_battleui                   sprite_battleui
     00116813  ___func_sprite_battleuidebug_til   sprite_battleuidebug_tileset
     00116813  _sprite_battleuidebug_tileset      sprite_battleuidebug_tileset
     00116855  ___func_sprite_battleuidebug       sprite_battleuidebug
     00116855  _sprite_battleuidebug_metasprite   sprite_battleuidebug
     00116869  _sprite_battleuidebug_metasprite   sprite_battleuidebug
     0011686B  _sprite_battleuidebug_animations   sprite_battleuidebug
     0011687B  _sprite_battleuidebug_animations   sprite_battleuidebug
     0011687D  _sprite_battleuidebug              sprite_battleuidebug
     00116890  ___func_sprite_blooky_tileset      sprite_blooky_tileset
     00116890  _sprite_blooky_tileset             sprite_blooky_tileset
     00116912  ___func_sprite_blooky              sprite_blooky
     00116912  _sprite_blooky_metasprite_0        sprite_blooky
     00116926  _sprite_blooky_metasprites         sprite_blooky
     00116928  _sprite_blooky_animations          sprite_blooky
     00116938  _sprite_blooky_animations_lookup   sprite_blooky
     0011693A  _sprite_blooky                     sprite_blooky
     0011694D  ___func_sprite_candy               sprite_candy
     0011694D  _sprite_candy_metasprite_0         sprite_candy
     00116971  _sprite_candy_metasprites          sprite_candy
     00116973  _sprite_candy_animations           sprite_candy
     00116983  _sprite_candy_animations_lookup    sprite_candy
     00116985  _sprite_candy                      sprite_candy
     00116998  ___func_sprite_dummy_tileset       sprite_dummy_tileset
     00116998  _sprite_dummy_tileset              sprite_dummy_tileset
     00116A1A  ___func_sprite_dummy               sprite_dummy
     00116A1A  _sprite_dummy_metasprite_0         sprite_dummy
     00116A2E  _sprite_dummy_metasprites          sprite_dummy
ASxxxx Linker V03.00 + NoICE + sdld,  page 62.
Hexadecimal  [32-Bits]

Area                                    Addr        Size        Decimal Bytes (Attributes)
--------------------------------        ----        ----        ------- ----- ------------
_CODE_17                            00114000    00003A29 =       14889. bytes (REL,CON)

      Value  Global                              Global Defined In Module
      -----  --------------------------------   ------------------------
     00116A30  _sprite_dummy_animations           sprite_dummy
     00116A40  _sprite_dummy_animations_lookup    sprite_dummy
     00116A42  _sprite_dummy                      sprite_dummy
     00116A55  ___func_sprite_empty_tileset       sprite_empty_tileset
     00116A55  _sprite_empty_tileset              sprite_empty_tileset
     00116A58  ___func_sprite_flowey_tileset      sprite_flowey_tileset
     00116A58  _sprite_flowey_tileset             sprite_flowey_tileset
     00116A9A  ___func_sprite_flowey              sprite_flowey
     00116A9A  _sprite_flowey_metasprite_0        sprite_flowey
     00116AA6  _sprite_flowey_metasprites         sprite_flowey
     00116AA8  _sprite_flowey_animations          sprite_flowey
     00116AB8  _sprite_flowey_animations_lookup   sprite_flowey
     00116ABA  _sprite_flowey                     sprite_flowey
     00116ACD  ___func_sprite_froggit_overworld   sprite_froggit_overworld__ti
     00116ACD  _sprite_froggit_overworld__tiles   sprite_froggit_overworld__ti
     00116B4F  ___func_sprite_froggit_overworld   sprite_froggit_overworld_
     00116B4F  _sprite_froggit_overworld__metas   sprite_froggit_overworld_
     00116B5B  _sprite_froggit_overworld__metas   sprite_froggit_overworld_
     00116B67  _sprite_froggit_overworld__metas   sprite_froggit_overworld_
     00116B6B  _sprite_froggit_overworld__anima   sprite_froggit_overworld_
     00116B7B  _sprite_froggit_overworld__anima   sprite_froggit_overworld_
     00116B7D  _sprite_froggit_overworld_         sprite_froggit_overworld_
     00116B90  ___func_sprite_groundswitchround   sprite_groundswitchround_til
     00116B90  _sprite_groundswitchround_tilese   sprite_groundswitchround_til
     00116BD2  ___func_sprite_groundswitchround   sprite_groundswitchround
     00116BD2  _sprite_groundswitchround_metasp   sprite_groundswitchround
     00116BDE  _sprite_groundswitchround_metasp   sprite_groundswitchround
     00116BEA  _sprite_groundswitchround_metasp   sprite_groundswitchround
     00116BEE  _sprite_groundswitchround_animat   sprite_groundswitchround
     00116BFE  _sprite_groundswitchround_animat   sprite_groundswitchround
     00116C00  _sprite_groundswitchround          sprite_groundswitchround
     00116C13  ___func_sprite_heart_tileset       sprite_heart_tileset
     00116C13  _sprite_heart_tileset              sprite_heart_tileset
     00116C35  ___func_sprite_heart               sprite_heart
     00116C35  _sprite_heart_metasprite_0         sprite_heart
     00116C3D  _sprite_heart_metasprites          sprite_heart
     00116C3F  _sprite_heart_animations           sprite_heart
     00116C4F  _sprite_heart_animations_lookup    sprite_heart
     00116C51  _sprite_heart                      sprite_heart
     00116C64  ___func_sprite_rock_tileset        sprite_rock_tileset
     00116C64  _sprite_rock_tileset               sprite_rock_tileset
     00116CA6  ___func_sprite_rock                sprite_rock
     00116CA6  _sprite_rock_metasprite_0          sprite_rock
     00116CB2  _sprite_rock_metasprites           sprite_rock
     00116CB4  _sprite_rock_animations            sprite_rock
     00116CC4  _sprite_rock_animations_lookup     sprite_rock
     00116CC6  _sprite_rock                       sprite_rock
     00116CD9  ___func_sprite_sign_tileset        sprite_sign_tileset
     00116CD9  _sprite_sign_tileset               sprite_sign_tileset
     00116D1B  ___func_sprite_sign                sprite_sign
     00116D1B  _sprite_sign_metasprite_0          sprite_sign
ASxxxx Linker V03.00 + NoICE + sdld,  page 63.
Hexadecimal  [32-Bits]

Area                                    Addr        Size        Decimal Bytes (Attributes)
--------------------------------        ----        ----        ------- ----- ------------
_CODE_17                            00114000    00003A29 =       14889. bytes (REL,CON)

      Value  Global                              Global Defined In Module
      -----  --------------------------------   ------------------------
     00116D27  _sprite_sign_metasprites           sprite_sign
     00116D29  _sprite_sign_animations            sprite_sign
     00116D39  _sprite_sign_animations_lookup     sprite_sign
     00116D3B  _sprite_sign                       sprite_sign
     00116D4E  ___func_sprite_spikes_tileset      sprite_spikes_tileset
     00116D4E  _sprite_spikes_tileset             sprite_spikes_tileset
     00116D70  ___func_sprite_spikes              sprite_spikes
     00116D70  _sprite_spikes_metasprite_0        sprite_spikes
     00116D7C  _sprite_spikes_metasprites         sprite_spikes
     00116D7E  _sprite_spikes_animations          sprite_spikes
     00116D8E  _sprite_spikes_animations_lookup   sprite_spikes
     00116D90  _sprite_spikes                     sprite_spikes
     00116DA3  ___func_sprite_star_tileset        sprite_star_tileset
     00116DA3  _sprite_star_tileset               sprite_star_tileset
     00116E25  ___func_sprite_star                sprite_star
     00116E25  _sprite_star_metasprite_0          sprite_star
     00116E31  _sprite_star_metasprite_1          sprite_star
     00116E3D  _sprite_star_metasprite_2          sprite_star
     00116E49  _sprite_star_metasprite_3          sprite_star
     00116E55  _sprite_star_metasprites           sprite_star
     00116E5D  _sprite_star_animations            sprite_star
     00116E7D  _sprite_star_animations_lookup     sprite_star
     00116E81  _sprite_star                       sprite_star
     00116E94  ___func_sprite_wallswitch_tilese   sprite_wallswitch_tileset
     00116E94  _sprite_wallswitch_tileset         sprite_wallswitch_tileset
     00116ED6  ___func_sprite_wallswitch          sprite_wallswitch
     00116ED6  _sprite_wallswitch_metasprite_0    sprite_wallswitch
     00116EDE  _sprite_wallswitch_metasprite_1    sprite_wallswitch
     00116EE6  _sprite_wallswitch_metasprites     sprite_wallswitch
     00116EEA  _sprite_wallswitch_animations      sprite_wallswitch
     00116F0A  _sprite_wallswitch_animations_lo   sprite_wallswitch
     00116F10  _sprite_wallswitch                 sprite_wallswitch
     00116F23  _spritesheet_none_metasprite       spritesheet_none
     00116F27  _spritesheet_none_metasprites      spritesheet_none
     00116F29  _spritesheet_none                  spritesheet_none
     00116F3C  _trigger_0_interact                trigger_0_interact
     00116F62  _trigger_1_interact                trigger_1_interact
     00116F93  _trigger_10_interact               trigger_10_interact
     00116FB9  _trigger_11_interact               trigger_11_interact
     00116FDF  _trigger_12_interact               trigger_12_interact
     00117005  _trigger_13_interact               trigger_13_interact
     0011702B  _trigger_14_interact               trigger_14_interact
     00117051  _trigger_15_interact               trigger_15_interact
     00117077  _trigger_16_interact               trigger_16_interact
     0011709D  _trigger_17_interact               trigger_17_interact
     001170C3  _trigger_18_interact               trigger_18_interact
     001170E9  _trigger_19_interact               trigger_19_interact
     0011710F  _trigger_2_interact                trigger_2_interact
     00117135  _trigger_20_interact               trigger_20_interact
     0011715B  _trigger_21_interact               trigger_21_interact
     00117181  _trigger_22_interact               trigger_22_interact
ASxxxx Linker V03.00 + NoICE + sdld,  page 64.
Hexadecimal  [32-Bits]

Area                                    Addr        Size        Decimal Bytes (Attributes)
--------------------------------        ----        ----        ------- ----- ------------
_CODE_17                            00114000    00003A29 =       14889. bytes (REL,CON)

      Value  Global                              Global Defined In Module
      -----  --------------------------------   ------------------------
     001171A7  _trigger_23_interact               trigger_23_interact
     001171CD  _trigger_24_interact               trigger_24_interact
     001171F3  _trigger_25_interact               trigger_25_interact
     00117219  _trigger_26_interact               trigger_26_interact
     0011723F  _trigger_27_interact               trigger_27_interact
     00117265  _trigger_28_interact               trigger_28_interact
     0011728B  _trigger_29_interact               trigger_29_interact
     001172B1  _trigger_3_interact                trigger_3_interact
     001172D7  _trigger_30_interact               trigger_30_interact
     001172FD  _trigger_31_interact               trigger_31_interact
     00117323  _trigger_32_interact               trigger_32_interact
     00117349  _trigger_33_interact               trigger_33_interact
     0011736F  _trigger_34_interact               trigger_34_interact
     00117395  _trigger_35_interact               trigger_35_interact
     001173BB  _trigger_36_interact               trigger_36_interact
     001173E1  _trigger_38_interact               trigger_38_interact
     0011744B  _trigger_39_interact               trigger_39_interact
     001174B5  _trigger_4_interact                trigger_4_interact
     001174DB  _trigger_40_interact               trigger_40_interact
     00117545  _trigger_41_interact               trigger_41_interact
     001175AF  _trigger_42_interact               trigger_42_interact
     00117619  _trigger_43_interact               trigger_43_interact
     00117683  _trigger_44_interact               trigger_44_interact
     001176ED  _trigger_45_interact               trigger_45_interact
     00117757  _trigger_46_interact               trigger_46_interact
     001177C1  _trigger_47_interact               trigger_47_interact
     0011782B  _trigger_5_interact                trigger_5_interact
     00117851  _trigger_51_interact               trigger_51_interact
     001178BB  _trigger_52_interact               trigger_52_interact
     00117925  _trigger_55_interact               trigger_55_interact
     0011795B  _trigger_56_interact               trigger_56_interact
     00117991  _trigger_6_interact                trigger_6_interact
     001179B7  _trigger_7_interact                trigger_7_interact
     001179DD  _trigger_8_interact                trigger_8_interact
     00117A03  _trigger_9_interact                trigger_9_interact

ASxxxx Linker V03.00 + NoICE + sdld,  page 65.
Hexadecimal  [32-Bits]

Area                                    Addr        Size        Decimal Bytes (Attributes)
--------------------------------        ----        ----        ------- ----- ------------
_CODE_7                             00074000    00004000 =       16384. bytes (REL,CON)

      Value  Global                              Global Defined In Module
      -----  --------------------------------   ------------------------
     00074000  _camera_init                       camera
     0007401E  _camera_reset                      camera
     0007402E  ___func_bg_intro07_tileset         bg_intro07_tileset
     0007402E  _bg_intro07_tileset                bg_intro07_tileset
     00074A60  ___func_bg_room19_tilemap_attr     bg_room19_tilemap_attr
     00074A60  _bg_room19_tilemap_attr            bg_room19_tilemap_attr
     000752E0  ___func_bg_room19_tilemap          bg_room19_tilemap
     000752E0  _bg_room19_tilemap                 bg_room19_tilemap
     00075B60  ___func_bg_room25_tilemap_attr     bg_room25_tilemap_attr
     00075B60  _bg_room25_tilemap_attr            bg_room25_tilemap_attr
     000764C0  ___func_bg_room25_tilemap          bg_room25_tilemap
     000764C0  _bg_room25_tilemap                 bg_room25_tilemap
     00076E20  ___func_scene_room_19_collisions   scene_room_19_collisions
     00076E20  _scene_room_19_collisions          scene_room_19_collisions
     000776A0  ___func_scene_room_25_collisions   scene_room_25_collisions
     000776A0  _scene_room_25_collisions          scene_room_25_collisions

ASxxxx Linker V03.00 + NoICE + sdld,  page 66.
Hexadecimal  [32-Bits]

Area                                    Addr        Size        Decimal Bytes (Attributes)
--------------------------------        ----        ----        ------- ----- ------------
_CODE_13                            000D4000    00004000 =       16384. bytes (REL,CON)

      Value  Global                              Global Defined In Module
      -----  --------------------------------   ------------------------
     000D4000  _core_reset                        core
     000D4075  _process_VM                        core
     000D431C  _core_run                          core
     000D43FE  _printer_send_receive              gbprinter
     000D4438  _printer_send_byte                 gbprinter
     000D4457  _printer_send_command              gbprinter
     000D4482  _printer_print_tile                gbprinter
     000D451C  _printer_wait                      gbprinter
     000D454C  _gbprinter_detect                  gbprinter
     000D456E  _gbprinter_print_overlay           gbprinter
     000D47B1  _data_init                         load_save
     000D47FC  _save_points                       load_save
     000D4854  _data_slot_address                 load_save
     000D48B8  _data_save                         load_save
     000D499E  _data_load                         load_save
     000D4AAD  _data_clear                        load_save
     000D4ADE  _data_peek                         load_save
     000D4B8C  _projectiles_init                  projectiles
     000D4BCC  _projectile_launch                 projectiles
     000D4FD5  _trigger_reset                     trigger
     000D4FE5  _trigger_interact                  trigger
     000D5025  _trigger_activate_at               trigger
     000D5070  _trigger_at_intersection           trigger
     000D5185  _trigger_activate_at_intersectio   trigger
     000D52C7  _trigger_at_tile                   trigger
     000D5357  ___func_VM_MATH                    vm_math
     000D5357  _vm_sin_scale                      vm_math
     000D53F9  _vm_cos_scale                      vm_math
     000D549D  ___func_VM_SIO                     vm_sio
     000D549D  _vm_sio_set_mode                   vm_sio
     000D54B0  _vm_sio_exchange                   vm_sio
     000D5809  ___func_bg_room02_tilemap_attr     bg_room02_tilemap_attr
     000D5809  _bg_room02_tilemap_attr            bg_room02_tilemap_attr
     000D5C49  ___func_bg_room02_tilemap          bg_room02_tilemap
     000D5C49  _bg_room02_tilemap                 bg_room02_tilemap
     000D6089  ___func_bg_room05_tileset          bg_room05_tileset
     000D6089  _bg_room05_tileset                 bg_room05_tileset
     000D645B  ___func_bg_room08_tileset          bg_room08_tileset
     000D645B  _bg_room08_tileset                 bg_room08_tileset
     000D684D  ___func_bg_room10_tileset          bg_room10_tileset
     000D684D  _bg_room10_tileset                 bg_room10_tileset
     000D6C3F  ___func_bg_room13_tileset          bg_room13_tileset
     000D6C3F  _bg_room13_tileset                 bg_room13_tileset
     000D7041  ___func_bg_room21_tileset          bg_room21_tileset
     000D7041  _bg_room21_tileset                 bg_room21_tileset
     000D73B3  ___func_bg_room23_tileset          bg_room23_tileset
     000D73B3  _bg_room23_tileset                 bg_room23_tileset
     000D7725  ___func_scene_room_02_collisions   scene_room_02_collisions
     000D7725  _scene_room_02_collisions          scene_room_02_collisions
     000D7B65  _scene_room_03_init                scene_room_03_init
ASxxxx Linker V03.00 + NoICE + sdld,  page 67.
Hexadecimal  [32-Bits]

Area                                    Addr        Size        Decimal Bytes (Attributes)
--------------------------------        ----        ----        ------- ----- ------------
_CODE_13                            000D4000    00004000 =       16384. bytes (REL,CON)

      Value  Global                              Global Defined In Module
      -----  --------------------------------   ------------------------
     000D7B80  ___func_scene_room_12_collisions   scene_room_12_collisions
     000D7B80  _scene_room_12_collisions          scene_room_12_collisions

ASxxxx Linker V03.00 + NoICE + sdld,  page 68.
Hexadecimal  [32-Bits]

Area                                    Addr        Size        Decimal Bytes (Attributes)
--------------------------------        ----        ----        ------- ----- ------------
_CRASH_HEADER0                      00000000    00000005 =           5. bytes (ABS,CON)

      Value  Global                              Global Defined In Module
      -----  --------------------------------   ------------------------
ASxxxx Linker V03.00 + NoICE + sdld,  page 69.
Hexadecimal  [32-Bits]

Area                                    Addr        Size        Decimal Bytes (Attributes)
--------------------------------        ----        ----        ------- ----- ------------
_CRASH_HEADER1                      00000000    00000004 =           4. bytes (ABS,CON)

      Value  Global                              Global Defined In Module
      -----  --------------------------------   ------------------------
ASxxxx Linker V03.00 + NoICE + sdld,  page 70.
Hexadecimal  [32-Bits]

Area                                    Addr        Size        Decimal Bytes (Attributes)
--------------------------------        ----        ----        ------- ----- ------------
_CODE_12                            000C4000    00004000 =       16384. bytes (REL,CON)

      Value  Global                              Global Defined In Module
      -----  --------------------------------   ------------------------
     000C4000  ___HandleCrash_banked              
     000C4367  ___func_bg_intro06_tileset         bg_intro06_tileset
     000C4367  _bg_intro06_tileset                bg_intro06_tileset
     000C4829  ___func_bg_room02_tileset          bg_room02_tileset
     000C4829  _bg_room02_tileset                 bg_room02_tileset
     000C4CEB  ___func_bg_room03_tilemap          bg_room03_tilemap
     000C4CEB  _bg_room03_tilemap                 bg_room03_tilemap
     000C52AB  ___func_bg_room03_tileset          bg_room03_tileset
     000C52AB  _bg_room03_tileset                 bg_room03_tileset
     000C579D  ___func_bg_room12_tilemap_attr     bg_room12_tilemap_attr
     000C579D  _bg_room12_tilemap_attr            bg_room12_tilemap_attr
     000C5C1D  ___func_bg_room12_tilemap          bg_room12_tilemap
     000C5C1D  _bg_room12_tilemap                 bg_room12_tilemap
     000C609D  ___func_bg_room14_tilemap_attr     bg_room14_tilemap_attr
     000C609D  _bg_room14_tilemap_attr            bg_room14_tilemap_attr
     000C65DD  ___func_bg_room14_tilemap          bg_room14_tilemap
     000C65DD  _bg_room14_tilemap                 bg_room14_tilemap
     000C6B1D  ___func_bg_room25_tileset          bg_room25_tileset
     000C6B1D  _bg_room25_tileset                 bg_room25_tileset
     000C74E8  _song_start_menu_Data              song_start_menu_Data
     000C74FD  ___func_scene_room_03_collisions   scene_room_03_collisions
     000C74FD  _scene_room_03_collisions          scene_room_03_collisions
     000C7ABD  ___func_scene_room_03_sprites      scene_room_03_sprites
     000C7ABD  _scene_room_03_sprites             scene_room_03_sprites
     000C7AC0  ___func_scene_room_14_collisions   scene_room_14_collisions
     000C7AC0  _scene_room_14_collisions          scene_room_14_collisions

ASxxxx Linker V03.00 + NoICE + sdld,  page 71.
Hexadecimal  [32-Bits]

Area                                    Addr        Size        Decimal Bytes (Attributes)
--------------------------------        ----        ----        ------- ----- ------------
_CRASH_SCRATCH2                     00000000    000001CB =         459. bytes (ABS,CON)

      Value  Global                              Global Defined In Module
      -----  --------------------------------   ------------------------
ASxxxx Linker V03.00 + NoICE + sdld,  page 72.
Hexadecimal  [32-Bits]

Area                                    Addr        Size        Decimal Bytes (Attributes)
--------------------------------        ----        ----        ------- ----- ------------
_CODE_6                             00064000    00004000 =       16384. bytes (REL,CON)

      Value  Global                              Global Defined In Module
      -----  --------------------------------   ------------------------
     00064000  _load_init                         data_manager
     00064013  _spritesheet_none_far              data_manager
     00064016  _load_bkg_tileset                  data_manager
     000640EF  _load_background                   data_manager
     000641ED  _load_sprite                       data_manager
     000642EA  _load_bounds                       data_manager
     0006430A  _do_load_palette                   data_manager
     0006438A  _load_scene                        data_manager
     00064C64  _load_player                       data_manager
     00064CB0  _load_emote                        data_manager
     00064CC4  ___func_bg_intro03_tileset         bg_intro03_tileset
     00064CC4  _bg_intro03_tileset                bg_intro03_tileset
     00065746  ___func_bg_intro04_tileset         bg_intro04_tileset
     00065746  _bg_intro04_tileset                bg_intro04_tileset
     000661B8  ___func_bg_room07_test__tilemap    bg_room07_test__tilemap
     000661B8  _bg_room07_test__tilemap           bg_room07_test__tilemap
     00066CF8  ___func_bg_room20_tilemap_attr     bg_room20_tilemap_attr
     00066CF8  _bg_room20_tilemap_attr            bg_room20_tilemap_attr
     000674B0  ___func_cursor_image               cursor_image
     000674B0  _cursor_image                      cursor_image
     000674C0  ___func_scene_room_07_collisions   scene_room_07_collisions
     000674C0  _scene_room_07_collisions          scene_room_07_collisions

ASxxxx Linker V03.00 + NoICE + sdld,  page 73.
Hexadecimal  [32-Bits]

Area                                    Addr        Size        Decimal Bytes (Attributes)
--------------------------------        ----        ----        ------- ----- ------------
_CODE_15                            000F4000    00004000 =       16384. bytes (REL,CON)

      Value  Global                              Global Defined In Module
      -----  --------------------------------   ------------------------
     000F4000  _CGBFadeToWhiteStep                fade_manager
     000F4039  _CGBFadeToBlackStep                fade_manager
     000F4074  _ApplyPaletteChangeColor           fade_manager
     000F40B8  _fade_speeds                       fade_manager
     000F40BF  _DMGFadeToWhiteStep                fade_manager
     000F40E2  _DMGFadeToBlackStep                fade_manager
     000F4107  _ApplyPaletteChangeDMG             fade_manager
     000F417E  _fade_init                         fade_manager
     000F41A6  _fade_in                           fade_manager
     000F41D7  _fade_out                          fade_manager
     000F4209  _fade_update                       fade_manager
     000F4263  _fade_applypalettechange           fade_manager
     000F427D  _fade_setspeed                     fade_manager
     000F428D  _fade_in_modal                     fade_manager
     000F42A7  _fade_out_modal                    fade_manager
     000F42C1  _set_sgb_border                    sgb_border
     000F44F2  ___func_VM_PALETTE                 vm_palette
     000F44F2  _vm_load_palette                   vm_palette
     000F46A6  _actor_32_interact                 actor_32_interact
     000F4780  _actor_5_update                    actor_5_update
     000F4934  ___func_bg_battle1_test_tilemap_   bg_battle1_test_tilemap_attr
     000F4934  _bg_battle1_test_tilemap_attr      bg_battle1_test_tilemap_attr
     000F4A9C  ___func_bg_battle1_test_tilemap    bg_battle1_test_tilemap
     000F4A9C  _bg_battle1_test_tilemap           bg_battle1_test_tilemap
     000F4C04  ___func_bg_battle2_test_tilemap    bg_battle2_test_tilemap
     000F4C04  _bg_battle2_test_tilemap           bg_battle2_test_tilemap
     000F4D6C  ___func_bg_battlemockup_tilemap_   bg_battlemockup_tilemap_attr
     000F4D6C  _bg_battlemockup_tilemap_attr      bg_battlemockup_tilemap_attr
     000F503C  ___func_bg_battlemockup_tilemap    bg_battlemockup_tilemap
     000F503C  _bg_battlemockup_tilemap           bg_battlemockup_tilemap
     000F530C  ___func_bg_battlemockup_tileset    bg_battlemockup_tileset
     000F530C  _bg_battlemockup_tileset           bg_battlemockup_tileset
     000F547E  ___func_bg_gameover_tilemap        bg_gameover_tilemap
     000F547E  _bg_gameover_tilemap               bg_gameover_tilemap
     000F55E6  ___func_bg_intro01_tilemap_attr    bg_intro01_tilemap_attr
     000F55E6  _bg_intro01_tilemap_attr           bg_intro01_tilemap_attr
     000F574E  ___func_bg_loadmenu_tileset        bg_loadmenu_tileset
     000F574E  _bg_loadmenu_tileset               bg_loadmenu_tileset
     000F5A20  ___func_bg_logo_tileset            bg_logo_tileset
     000F5A20  _bg_logo_tileset                   bg_logo_tileset
     000F5C12  ___func_bg_room04_tileset          bg_room04_tileset
     000F5C12  _bg_room04_tileset                 bg_room04_tileset
     000F5E14  ___func_bg_room06_tileset          bg_room06_tileset
     000F5E14  _bg_room06_tileset                 bg_room06_tileset
     000F60A6  ___func_bg_room09_tileset          bg_room09_tileset
     000F60A6  _bg_room09_tileset                 bg_room09_tileset
     000F62A8  ___func_bg_room14_tileset          bg_room14_tileset
     000F62A8  _bg_room14_tileset                 bg_room14_tileset
     000F658A  ___func_bg_room15_tileset          bg_room15_tileset
     000F658A  _bg_room15_tileset                 bg_room15_tileset
ASxxxx Linker V03.00 + NoICE + sdld,  page 74.
Hexadecimal  [32-Bits]

Area                                    Addr        Size        Decimal Bytes (Attributes)
--------------------------------        ----        ----        ------- ----- ------------
_CODE_15                            000F4000    00004000 =       16384. bytes (REL,CON)

      Value  Global                              Global Defined In Module
      -----  --------------------------------   ------------------------
     000F673C  ___func_bg_room16_tileset          bg_room16_tileset
     000F673C  _bg_room16_tileset                 bg_room16_tileset
     000F698E  ___func_bg_room17_tileset          bg_room17_tileset
     000F698E  _bg_room17_tileset                 bg_room17_tileset
     000F6B50  ___func_bg_room18_tileset          bg_room18_tileset
     000F6B50  _bg_room18_tileset                 bg_room18_tileset
     000F6CC2  ___func_scene_battle_test__colli   scene_battle_test__collision
     000F6CC2  _scene_battle_test__collisions     scene_battle_test__collision
     000F6F92  _scene_battle_test_1_init          scene_battle_test_1_init
     000F71B3  ___func_scene_room_04_actors       scene_room_04_actors
     000F71B3  _scene_room_04_actors              scene_room_04_actors
     000F7353  ___func_scene_room_05_actors       scene_room_05_actors
     000F7353  _scene_room_05_actors              scene_room_05_actors
     000F755B  ___func_scene_room_06_sprites      scene_room_06_sprites
     000F755B  _scene_room_06_sprites             scene_room_06_sprites
     000F755E  ___func_scene_room_15_collisions   scene_room_15_collisions
     000F755E  _scene_room_15_collisions          scene_room_15_collisions
     000F785E  ___func_scene_room_16_collisions   scene_room_16_collisions
     000F785E  _scene_room_16_collisions          scene_room_16_collisions
     000F7B5E  ___func_scene_room_17_collisions   scene_room_17_collisions
     000F7B5E  _scene_room_17_collisions          scene_room_17_collisions
     000F7E5E  ___func_sprite_battleui_tileset    sprite_battleui_tileset
     000F7E5E  _sprite_battleui_tileset           sprite_battleui_tileset

ASxxxx Linker V03.00 + NoICE + sdld,  page 75.
Hexadecimal  [32-Bits]

Area                                    Addr        Size        Decimal Bytes (Attributes)
--------------------------------        ----        ----        ------- ----- ------------
_CODE_4                             00044000    00003FFF =       16383. bytes (REL,CON)

      Value  Global                              Global Defined In Module
      -----  --------------------------------   ------------------------
     00044068  _save_sram_banks                   
     000440F0  _erase_flash                       
     00044106  ___func_bg_room07_test__tilemap_   bg_room07_test__tilemap_attr
     00044106  _bg_room07_test__tilemap_attr      bg_room07_test__tilemap_attr
     00044C46  ___func_bg_room13_tilemap_attr     bg_room13_tilemap_attr
     00044C46  _bg_room13_tilemap_attr            bg_room13_tilemap_attr
     00045D7E  ___func_bg_room13_tilemap          bg_room13_tilemap
     00045D7E  _bg_room13_tilemap                 bg_room13_tilemap
     00046EB6  ___func_scene_room_13_collisions   scene_room_13_collisions
     00046EB6  _scene_room_13_collisions          scene_room_13_collisions
     00047FEE  _logo_init                         logo
     00047FFE  _logo_update                       logo
ASxxxx Linker V03.00 + NoICE + sdld,  page 76.
Hexadecimal  [32-Bits]

Area                                    Addr        Size        Decimal Bytes (Attributes)
--------------------------------        ----        ----        ------- ----- ------------
_HEADER_SIO0                        00000000    00000004 =           4. bytes (ABS,CON)

      Value  Global                              Global Defined In Module
      -----  --------------------------------   ------------------------
ASxxxx Linker V03.00 + NoICE + sdld,  page 77.
Hexadecimal  [32-Bits]

Area                                    Addr        Size        Decimal Bytes (Attributes)
--------------------------------        ----        ----        ------- ----- ------------
_HEADER_TIMER0                      00000000    00000004 =           4. bytes (ABS,CON)

      Value  Global                              Global Defined In Module
      -----  --------------------------------   ------------------------
ASxxxx Linker V03.00 + NoICE + sdld,  page 78.
Hexadecimal  [32-Bits]

Area                                    Addr        Size        Decimal Bytes (Attributes)
--------------------------------        ----        ----        ------- ----- ------------
_CODE_16                            00104000    00004000 =       16384. bytes (REL,CON)

      Value  Global                              Global Defined In Module
      -----  --------------------------------   ------------------------
     00104000  _music_init_driver                 music_manager
     00104057  _music_init_events                 music_manager
     00104093  _music_events_poll                 music_manager
     001040BD  _music_pause                       music_manager
     001040E2  ___func_VM_GBPRINTER               vm_gbprinter
     001040E2  _vm_print_detect                   vm_gbprinter
     00104134  _vm_print_overlay                  vm_gbprinter
     0010418C  ___func_VM_MUSIC                   vm_music
     0010418C  _vm_music_play                     vm_music
     001041D0  _vm_music_stop                     vm_music
     001041F2  _vm_music_mute                     vm_music
     00104228  _vm_music_routine                  vm_music
     0010424F  _vm_music_setpos                   vm_music
     00104259  _vm_sound_mastervol                vm_music
     0010425F  _vm_sfx_play                       vm_music
     001042D2  ___func_VM_PROJECTILE              vm_projectiles
     001042D2  _vm_projectile_launch              vm_projectiles
     00104313  _vm_projectile_load_type           vm_projectiles
     001043BE  ___func_VM_RTC                     vm_rtc
     001043BE  _vm_rtc_latch                      vm_rtc
     001043C6  _vm_rtc_get                        vm_rtc
     0010442F  _vm_rtc_set                        vm_rtc
     00104497  _vm_rtc_start                      vm_rtc
     001044BA  ___func_VM_SCENE                   vm_scene
     001044BA  _vm_scene_push                     vm_scene
     0010453F  _vm_scene_pop                      vm_scene
     0010454D  _vm_scene_pop_all                  vm_scene
     00104558  _vm_scene_stack_reset              vm_scene
     00104561  _itoa_fmt                          vm_ui_a
     0010459A  .utoa_fmt                          vm_ui_a
     00104644  _actor_34_update                   actor_34_update
     00104717  _actor_37_update                   actor_37_update
     001047EA  _actor_38_update                   actor_38_update
     001048BD  ___func_bg_gameover_tileset        bg_gameover_tileset
     001048BD  _bg_gameover_tileset               bg_gameover_tileset
     001049EF  ___func_bg_intro01_tilemap         bg_intro01_tilemap
     001049EF  _bg_intro01_tilemap                bg_intro01_tilemap
     00104B57  ___func_bg_intro02_tilemap         bg_intro02_tilemap
     00104B57  _bg_intro02_tilemap                bg_intro02_tilemap
     00104CBF  ___func_bg_intro03_tilemap         bg_intro03_tilemap
     00104CBF  _bg_intro03_tilemap                bg_intro03_tilemap
     00104E27  ___func_bg_intro04_tilemap         bg_intro04_tilemap
     00104E27  _bg_intro04_tilemap                bg_intro04_tilemap
     00104F8F  ___func_bg_intro05_tilemap         bg_intro05_tilemap
     00104F8F  _bg_intro05_tilemap                bg_intro05_tilemap
     001050F7  ___func_bg_intro05_tileset         bg_intro05_tileset
     001050F7  _bg_intro05_tileset                bg_intro05_tileset
     001051A9  ___func_bg_intro06_tilemap         bg_intro06_tilemap
     001051A9  _bg_intro06_tilemap                bg_intro06_tilemap
     00105311  ___func_bg_intro07_tilemap         bg_intro07_tilemap
ASxxxx Linker V03.00 + NoICE + sdld,  page 79.
Hexadecimal  [32-Bits]

Area                                    Addr        Size        Decimal Bytes (Attributes)
--------------------------------        ----        ----        ------- ----- ------------
_CODE_16                            00104000    00004000 =       16384. bytes (REL,CON)

      Value  Global                              Global Defined In Module
      -----  --------------------------------   ------------------------
     00105311  _bg_intro07_tilemap                bg_intro07_tilemap
     00105479  ___func_bg_introtemplate_tilemap   bg_introtemplate_tilemap
     00105479  _bg_introtemplate_tilemap          bg_introtemplate_tilemap
     001055E1  ___func_bg_loadmenu_tilemap_attr   bg_loadmenu_tilemap_attr
     001055E1  _bg_loadmenu_tilemap_attr          bg_loadmenu_tilemap_attr
     00105749  ___func_bg_loadmenu_tilemap        bg_loadmenu_tilemap
     00105749  _bg_loadmenu_tilemap               bg_loadmenu_tilemap
     001058B1  ___func_bg_logo_tilemap            bg_logo_tilemap
     001058B1  _bg_logo_tilemap                   bg_logo_tilemap
     00105A19  ___func_bg_room20_tileset          bg_room20_tileset
     00105A19  _bg_room20_tileset                 bg_room20_tileset
     00105B3B  ___func_bg_tilebank_misc_tilemap   bg_tilebank_misc_tilemap_att
     00105B3B  _bg_tilebank_misc_tilemap_attr     bg_tilebank_misc_tilemap_att
     00105CA3  ___func_bg_tilebank_misc_tilemap   bg_tilebank_misc_tilemap
     00105CA3  _bg_tilebank_misc_tilemap          bg_tilebank_misc_tilemap
     00105E0B  ___func_bg_tilebank_water_tilema   bg_tilebank_water_tilemap
     00105E0B  _bg_tilebank_water_tilemap         bg_tilebank_water_tilemap
     00105F73  ___func_bg_tilebank_water_tilese   bg_tilebank_water_tileset
     00105F73  _bg_tilebank_water_tileset         bg_tilebank_water_tileset
     00106045  ___func_scene_40_collisions        scene_40_collisions
     00106045  _scene_40_collisions               scene_40_collisions
     001061AD  ___func_scene_41_collisions        scene_41_collisions
     001061AD  _scene_41_collisions               scene_41_collisions
     00106315  ___func_scene_battle_test__actor   scene_battle_test__actors
     00106315  _scene_battle_test__actors         scene_battle_test__actors
     001063B1  _scene_battle_test__init           scene_battle_test__init
     0010644D  ___func_scene_battle_test_1_coll   scene_battle_test_1_collisio
     0010644D  _scene_battle_test_1_collisions    scene_battle_test_1_collisio
     001065B5  ___func_scene_battle_test_2_acto   scene_battle_test_2_actors
     001065B5  _scene_battle_test_2_actors        scene_battle_test_2_actors
     00106651  ___func_scene_battle_test_2_coll   scene_battle_test_2_collisio
     00106651  _scene_battle_test_2_collisions    scene_battle_test_2_collisio
     001067B9  ___func_scene_debug_collisions     scene_debug_collisions
     001067B9  _scene_debug_collisions            scene_debug_collisions
     00106921  ___func_scene_gameover_collision   scene_gameover_collisions
     00106921  _scene_gameover_collisions         scene_gameover_collisions
     00106A89  ___func_scene_intro_01_collision   scene_intro_01_collisions
     00106A89  _scene_intro_01_collisions         scene_intro_01_collisions
     00106BF1  ___func_scene_intro_02_collision   scene_intro_02_collisions
     00106BF1  _scene_intro_02_collisions         scene_intro_02_collisions
     00106D59  _scene_intro_02_init               scene_intro_02_init
     00106DB6  ___func_scene_intro_03_collision   scene_intro_03_collisions
     00106DB6  _scene_intro_03_collisions         scene_intro_03_collisions
     00106F1E  ___func_scene_intro_04_collision   scene_intro_04_collisions
     00106F1E  _scene_intro_04_collisions         scene_intro_04_collisions
     00107086  ___func_scene_intro_05_collision   scene_intro_05_collisions
     00107086  _scene_intro_05_collisions         scene_intro_05_collisions
     001071EE  ___func_scene_intro_06_collision   scene_intro_06_collisions
     001071EE  _scene_intro_06_collisions         scene_intro_06_collisions
     00107356  ___func_scene_intro_07_collision   scene_intro_07_collisions
     00107356  _scene_intro_07_collisions         scene_intro_07_collisions
ASxxxx Linker V03.00 + NoICE + sdld,  page 80.
Hexadecimal  [32-Bits]

Area                                    Addr        Size        Decimal Bytes (Attributes)
--------------------------------        ----        ----        ------- ----- ------------
_CODE_16                            00104000    00004000 =       16384. bytes (REL,CON)

      Value  Global                              Global Defined In Module
      -----  --------------------------------   ------------------------
     001074BE  ___func_scene_logo_collisions      scene_logo_collisions
     001074BE  _scene_logo_collisions             scene_logo_collisions
     00107626  ___func_scene_menu_1_collisions    scene_menu_1_collisions
     00107626  _scene_menu_1_collisions           scene_menu_1_collisions
     0010778E  _scene_menu_1_init                 scene_menu_1_init
     00107839  ___func_scene_room_07_actors       scene_room_07_actors
     00107839  _scene_room_07_actors              scene_room_07_actors
     001078D5  ___func_scene_room_07_triggers     scene_room_07_triggers
     001078D5  _scene_room_07_triggers            scene_room_07_triggers
     0010797D  ___func_scene_room_14_actors       scene_room_14_actors
     0010797D  _scene_room_14_actors              scene_room_14_actors
     00107A19  _script_refresh_battle_ui          script_refresh_battle_ui
     00107B1D  _script_speech_bubble_test         script_speech_bubble_test
     00107BC1  ___func_sprite_candy_tileset       sprite_candy_tileset
     00107BC1  _sprite_candy_tileset              sprite_candy_tileset
     00107C83  ___func_sprite_player              sprite_player
     00107C83  _sprite_player_metasprite_0        sprite_player
     00107C8F  _sprite_player_metasprite_1        sprite_player
     00107C9B  _sprite_player_metasprite_2        sprite_player
     00107CA7  _sprite_player_metasprite_3        sprite_player
     00107CB3  _sprite_player_metasprite_4        sprite_player
     00107CBF  _sprite_player_metasprite_5        sprite_player
     00107CCB  _sprite_player_metasprite_6        sprite_player
     00107CD7  _sprite_player_metasprite_7        sprite_player
     00107CE3  _sprite_player_metasprites         sprite_player
     00107CFB  _sprite_player_animations          sprite_player
     00107D0B  _sprite_player_animations_lookup   sprite_player
     00107D0D  _sprite_player                     sprite_player
     00107D20  _trigger_48_interact               trigger_48_interact
     00107DF2  _trigger_49_interact               trigger_49_interact
     00107EC4  _trigger_53_interact               trigger_53_interact
     00107F62  _trigger_54_interact               trigger_54_interact

ASxxxx Linker V03.00 + NoICE + sdld,  page 81.
Hexadecimal  [32-Bits]

Area                                    Addr        Size        Decimal Bytes (Attributes)
--------------------------------        ----        ----        ------- ----- ------------
_CODE_9                             00094000    00004000 =       16384. bytes (REL,CON)

      Value  Global                              Global Defined In Module
      -----  --------------------------------   ------------------------
     00094000  _scroll_init                       scroll
     0009402A  _scroll_reset                      scroll
     0009404A  _scroll_update                     scroll
     00094161  _scroll_viewport                   scroll
     0009460F  _scroll_repaint                    scroll
     0009461F  _scroll_render_rows                scroll
     000946A7  _scroll_queue_row                  scroll
     000946CC  _scroll_queue_col                  scroll
     00094718  ___func_VM_UI                      vm_ui
     00094718  _vm_display_text                   vm_ui
     00094786  _vm_switch_text_layer              vm_ui
     000947A0  _vm_overlay_setpos                 vm_ui
     000947BA  _vm_overlay_wait                   vm_ui
     0009484B  _vm_overlay_move_to                vm_ui
     0009488F  _vm_overlay_set_scroll             vm_ui
     000948CC  _vm_overlay_clear                  vm_ui
     000949A5  _vm_overlay_show                   vm_ui
     000949F3  _vm_choice                         vm_ui
     00094B0E  _vm_set_font                       vm_ui
     00094B3F  _vm_overlay_scroll                 vm_ui
     00094B9F  _vm_overlay_set_submap             vm_ui
     00094C0F  _vm_overlay_set_submap_ex          vm_ui
     00094D12  _vm_overlay_set_map                vm_ui
     00094E76  _vm_set_text_sound                 vm_ui
     00094E8F  ___func_bg_battle1_test            bg_battle1_test
     00094E8F  _bg_battle1_test                   bg_battle1_test
     00094E9D  ___func_bg_room05_tilemap_attr     bg_room05_tilemap_attr
     00094E9D  _bg_room05_tilemap_attr            bg_room05_tilemap_attr
     0009558D  ___func_bg_room05_tilemap          bg_room05_tilemap
     0009558D  _bg_room05_tilemap                 bg_room05_tilemap
     00095C7D  ___func_bg_room21_tilemap_attr     bg_room21_tilemap_attr
     00095C7D  _bg_room21_tilemap_attr            bg_room21_tilemap_attr
     0009635D  ___func_scene_room_05_collisions   scene_room_05_collisions
     0009635D  _scene_room_05_collisions          scene_room_05_collisions
     00096A4D  ___func_scene_room_18_collisions   scene_room_18_collisions
     00096A4D  _scene_room_18_collisions          scene_room_18_collisions
     000971CD  _adventure_init                    adventure
     000971E2  _adventure_update                  adventure
     000978F9  _topdown_init                      topdown
     00097990  _topdown_update                    topdown

ASxxxx Linker V03.00 + NoICE + sdld,  page 82.
Hexadecimal  [32-Bits]

Area                                    Addr        Size        Decimal Bytes (Attributes)
--------------------------------        ----        ----        ------- ----- ------------
_CODE_1                             00014000    00003FFF =       16383. bytes (REL,CON)

      Value  Global                              Global Defined In Module
      -----  --------------------------------   ------------------------
     00014000  _ui_swap_tiles                     
     0001404A  _ui_print_make_mask_lr             
     00014066  _ui_print_make_mask_rl             
     00014082  _ui_init                           ui
     00014151  _ui_load_tiles                     ui
     000141A8  _ui_draw_frame                     ui
     0001423C  _ui_print_reset                    ui
     00014292  _ui_set_start_tile                 ui
     000142BE  _ui_print_render                   ui
     0001455F  _ui_draw_text_buffer_char          ui
     00014A53  _ui_run_menu                       ui
     00014D11  _ui_run_modal                      ui
     00014DE0  ___func_VM_ACTOR                   vm_actor
     00014DE0  _vm_actor_move_to                  vm_actor
     0001577D  _vm_actor_move_cancel              vm_actor
     000157B3  _vm_actor_activate                 vm_actor
     00015805  _vm_actor_deactivate               vm_actor
     00015856  _vm_actor_terminate_update         vm_actor
     0001589D  _vm_actor_set_dir                  vm_actor
     000158E6  _vm_actor_set_anim                 vm_actor
     00015973  _vm_actor_set_pos                  vm_actor
     000159ED  _vm_actor_get_pos                  vm_actor
     00015A5C  _vm_actor_get_dir                  vm_actor
     00015AD6  _vm_actor_get_angle                vm_actor
     00015B57  _vm_actor_emote                    vm_actor
     00015C1B  _vm_actor_set_bounds               vm_actor
     00015C79  _vm_actor_set_spritesheet          vm_actor
     00015D48  _vm_actor_replace_tile             vm_actor
     00015DB2  _vm_actor_set_anim_tick            vm_actor
     00015DF0  _vm_actor_set_move_speed           vm_actor
     00015E2E  _vm_actor_set_anim_frame           vm_actor
     00015E72  _vm_actor_get_anim_frame           vm_actor
     00015EBB  _vm_actor_set_anim_set             vm_actor
     00015F48  _vm_actor_set_spritesheet_by_ref   vm_actor
     00016056  _vm_actor_set_flags                vm_actor
     00016104  ___func_VM_SGB                     vm_sgb
     00016104  _actor_7_interact                  actor_7_interact
     00017FE4  _song_ruins_Data                   song_ruins_Data
     00017FF9  ___func_scene_battle_test_1_spri   scene_battle_test_1_sprites
     00017FF9  _scene_battle_test_1_sprites       scene_battle_test_1_sprites

ASxxxx Linker V03.00 + NoICE + sdld,  page 83.
Hexadecimal  [32-Bits]

Area                                    Addr        Size        Decimal Bytes (Attributes)
--------------------------------        ----        ----        ------- ----- ------------
_CODE_14                            000E4000    00003FFF =       16383. bytes (REL,CON)

      Value  Global                              Global Defined In Module
      -----  --------------------------------   ------------------------
     000E4000  ___func_VM_CAMERA                  vm_camera
     000E4000  _vm_camera_move_to                 vm_camera
     000E4153  _vm_camera_set_pos                 vm_camera
     000E419A  _camera_shake_frames               vm_camera
     000E4292  ___func_bg_battle1_test_tileset    bg_battle1_test_tileset
     000E4292  _bg_battle1_test_tileset           bg_battle1_test_tileset
     000E45E4  ___func_bg_battle2_test_tileset    bg_battle2_test_tileset
     000E45E4  _bg_battle2_test_tileset           bg_battle2_test_tileset
     000E4916  ___func_bg_room04_tilemap_attr     bg_room04_tilemap_attr
     000E4916  _bg_room04_tilemap_attr            bg_room04_tilemap_attr
     000E4C16  ___func_bg_room04_tilemap          bg_room04_tilemap
     000E4C16  _bg_room04_tilemap                 bg_room04_tilemap
     000E4F16  ___func_bg_room06_tilemap_attr     bg_room06_tilemap_attr
     000E4F16  _bg_room06_tilemap_attr            bg_room06_tilemap_attr
     000E5216  ___func_bg_room06_tilemap          bg_room06_tilemap
     000E5216  _bg_room06_tilemap                 bg_room06_tilemap
     000E5516  ___func_bg_room09_tilemap_attr     bg_room09_tilemap_attr
     000E5516  _bg_room09_tilemap_attr            bg_room09_tilemap_attr
     000E5816  ___func_bg_room09_tilemap          bg_room09_tilemap
     000E5816  _bg_room09_tilemap                 bg_room09_tilemap
     000E5B16  ___func_bg_room12_tileset          bg_room12_tileset
     000E5B16  _bg_room12_tileset                 bg_room12_tileset
     000E5E28  ___func_bg_room15_tilemap_attr     bg_room15_tilemap_attr
     000E5E28  _bg_room15_tilemap_attr            bg_room15_tilemap_attr
     000E6128  ___func_bg_room15_tilemap          bg_room15_tilemap
     000E6128  _bg_room15_tilemap                 bg_room15_tilemap
     000E6428  ___func_bg_room16_tilemap_attr     bg_room16_tilemap_attr
     000E6428  _bg_room16_tilemap_attr            bg_room16_tilemap_attr
     000E6728  ___func_bg_room16_tilemap          bg_room16_tilemap
     000E6728  _bg_room16_tilemap                 bg_room16_tilemap
     000E6A28  ___func_bg_room17_tilemap          bg_room17_tilemap
     000E6A28  _bg_room17_tilemap                 bg_room17_tilemap
     000E6D28  ___func_bg_room19_tileset          bg_room19_tileset
     000E6D28  _bg_room19_tileset                 bg_room19_tileset
     000E706A  ___func_bg_room22_tileset          bg_room22_tileset
     000E706A  _bg_room22_tileset                 bg_room22_tileset
     000E739C  ___func_scene_room_04_collisions   scene_room_04_collisions
     000E739C  _scene_room_04_collisions          scene_room_04_collisions
     000E769C  ___func_scene_room_06_collisions   scene_room_06_collisions
     000E769C  _scene_room_06_collisions          scene_room_06_collisions
     000E799C  ___func_scene_room_09_collisions   scene_room_09_collisions
     000E799C  _scene_room_09_collisions          scene_room_09_collisions
     000E7C9C  _pointnclick_init                  pointnclick
     000E7CD5  _pointnclick_update                pointnclick

ASxxxx Linker V03.00 + NoICE + sdld,  page 84.
Hexadecimal  [32-Bits]

Area                                    Addr        Size        Decimal Bytes (Attributes)
--------------------------------        ----        ----        ------- ----- ------------
_CODE_11                            000B4000    00004000 =       16384. bytes (REL,CON)

      Value  Global                              Global Defined In Module
      -----  --------------------------------   ------------------------
     000B4000  ___func_VM_GAMEBOY                 vm_gameboy
     000B4000  _vm_set_sprites_visible            vm_gameboy
     000B4017  _vm_input_wait                     vm_gameboy
     000B4040  _vm_context_prepare                vm_gameboy
     000B406B  _vm_input_attach                   vm_gameboy
     000B4081  _vm_input_detach                   vm_gameboy
     000B4095  _vm_input_get                      vm_gameboy
     000B40C9  _vm_fade                           vm_gameboy
     000B40FB  _vm_timer_prepare                  vm_gameboy
     000B4126  _vm_timer_set                      vm_gameboy
     000B4141  _vm_timer_stop                     vm_gameboy
     000B4155  _vm_timer_reset                    vm_gameboy
     000B416C  _vm_get_tile_xy                    vm_gameboy
     000B4255  _vm_replace_tile                   vm_gameboy
     000B42FE  _vm_poll                           vm_gameboy
     000B43D0  _vm_set_sprite_mode                vm_gameboy
     000B43E4  _vm_replace_tile_xy                vm_gameboy
     000B4506  _vm_rumble                         vm_gameboy
     000B4526  _vm_load_tiles                     vm_gameboy
     000B453B  _vm_load_tileset                   vm_gameboy
     000B4658  ___func_bg_intro01_tileset         bg_intro01_tileset
     000B4658  _bg_intro01_tileset                bg_intro01_tileset
     000B4CCA  ___func_bg_room01_tilemap_attr     bg_room01_tilemap_attr
     000B4CCA  _bg_room01_tilemap_attr            bg_room01_tilemap_attr
     000B52A2  ___func_bg_room01_tilemap          bg_room01_tilemap
     000B52A2  _bg_room01_tilemap                 bg_room01_tilemap
     000B587A  ___func_bg_room03_tilemap_attr     bg_room03_tilemap_attr
     000B587A  _bg_room03_tilemap_attr            bg_room03_tilemap_attr
     000B5E3A  ___func_bg_room07_test__tileset    bg_room07_test__tileset
     000B5E3A  _bg_room07_test__tileset           bg_room07_test__tileset
     000B648C  ___func_bg_room10_tilemap_attr     bg_room10_tilemap_attr
     000B648C  _bg_room10_tilemap_attr            bg_room10_tilemap_attr
     000B6A8C  ___func_bg_room10_tilemap          bg_room10_tilemap
     000B6A8C  _bg_room10_tilemap                 bg_room10_tilemap
     000B708C  ___func_bg_room24_tileset          bg_room24_tileset
     000B708C  _bg_room24_tileset                 bg_room24_tileset
     000B741E  ___func_scene_room_01_collisions   scene_room_01_collisions
     000B741E  _scene_room_01_collisions          scene_room_01_collisions
     000B79F6  ___func_scene_room_10_collisions   scene_room_10_collisions
     000B79F6  _scene_room_10_collisions          scene_room_10_collisions
     000B7FF6  _script_7                          script_7

ASxxxx Linker V03.00 + NoICE + sdld,  page 85.
Hexadecimal  [32-Bits]

Area                                    Addr        Size        Decimal Bytes (Attributes)
--------------------------------        ----        ----        ------- ----- ------------
_CODE_2                             00024000    00003FFE =       16382. bytes (REL,CON)

      Value  Global                              Global Defined In Module
      -----  --------------------------------   ------------------------
     00024000  ___func_VM_MAIN                    vm
     00024000  _vm_call                           vm
     00024042  _vm_ret                            vm
     000240A1  _vm_call_far                       vm
     0002411E  _vm_ret_far                        vm
     0002418D  _vm_push                           vm
     000241B7  _vm_pop                            vm
     000241F2  _vm_loop                           vm
     0002427F  _vm_jump                           vm
     0002428B  _wait_frames                       vm
     00024302  _vm_invoke                         vm
     0002442E  _vm_join                           vm
     00024487  _vm_terminate                      vm
     000244B4  _vm_if                             vm
     000245F8  _vm_if_const                       vm
     0002470C  _vm_push_value                     vm
     0002475E  _vm_push_value_ind                 vm
     000247D3  _vm_push_reference                 vm
     0002482A  _vm_reserve                        vm
     00024857  _vm_set                            vm
     000248B8  _vm_set_const                      vm
     000248E4  _vm_get_tlocal                     vm
     00024971  _vm_test_terminate                 vm
     0002497C  _vm_idle                           vm
     00024988  _vm_get_uint8                      vm
     000249BB  _vm_get_int8                       vm
     000249EF  _vm_get_int16                      vm
     00024A31  _vm_set_uint8                      vm
     00024A5D  _vm_set_int8                       vm
     00024A89  _vm_set_int16                      vm
     00024AC8  _vm_set_const_int8                 vm
     00024AD1  _vm_set_const_int16                vm
     00024ADD  _vm_init_rng                       vm
     00024B09  _vm_rand                           vm
     00024B8E  _vm_lock                           vm
     00024B9D  _vm_unlock                         vm
     00024BB0  _vm_raise                          vm
     00024BF2  _vm_set_indirect                   vm
     00024C6D  _vm_get_indirect                   vm
     00024CE8  _vm_poll_loaded                    vm
     00024D17  _vm_memset                         vm
     00024D5C  _vm_memcpy                         vm
     00024DDC  _script_runner_init                vm
     00024E98  _script_execute                    vm
     00024FDD  _script_terminate                  vm
     00025043  _script_detach_hthread             vm
     00025080  ___func_bg_room08_tilemap_attr     bg_room08_tilemap_attr
     00025080  _bg_room08_tilemap_attr            bg_room08_tilemap_attr
     000267F0  ___func_bg_room08_tilemap          bg_room08_tilemap
     000267F0  _bg_room08_tilemap                 bg_room08_tilemap
ASxxxx Linker V03.00 + NoICE + sdld,  page 86.
Hexadecimal  [32-Bits]

Area                                    Addr        Size        Decimal Bytes (Attributes)
--------------------------------        ----        ----        ------- ----- ------------
_CODE_2                             00024000    00003FFE =       16382. bytes (REL,CON)

      Value  Global                              Global Defined In Module
      -----  --------------------------------   ------------------------
     00027F60  _trigger_50_interact               trigger_50_interact
ASxxxx Linker V03.00 + NoICE + sdld,  page 87.
Hexadecimal  [32-Bits]

Area                                    Addr        Size        Decimal Bytes (Attributes)
--------------------------------        ----        ----        ------- ----- ------------
_CODE_8                             00084000    00003FFF =       16383. bytes (REL,CON)

      Value  Global                              Global Defined In Module
      -----  --------------------------------   ------------------------
     00084000  ___func_bg_intro02_tileset         bg_intro02_tileset
     00084000  _bg_intro02_tileset                bg_intro02_tileset
     000847A2  ___func_bg_room11_tilemap_attr     bg_room11_tilemap_attr
     000847A2  _bg_room11_tilemap_attr            bg_room11_tilemap_attr
     00084FA2  ___func_bg_room11_tilemap          bg_room11_tilemap
     00084FA2  _bg_room11_tilemap                 bg_room11_tilemap
     000857A2  ___func_bg_room18_tilemap_attr     bg_room18_tilemap_attr
     000857A2  _bg_room18_tilemap_attr            bg_room18_tilemap_attr
     00085F22  ___func_bg_room18_tilemap          bg_room18_tilemap
     00085F22  _bg_room18_tilemap                 bg_room18_tilemap
     000866A2  ___func_bg_room20_tilemap          bg_room20_tilemap
     000866A2  _bg_room20_tilemap                 bg_room20_tilemap
     00086E5A  ___func_scene_room_02_sprites      scene_room_02_sprites
     00086E5A  _scene_room_02_sprites             scene_room_02_sprites
     00086E5D  _scene_room_07_init                scene_room_07_init
     00087047  ___func_scene_room_11_collisions   scene_room_11_collisions
     00087047  _scene_room_11_collisions          scene_room_11_collisions
     00087847  ___func_scene_room_20_collisions   scene_room_20_collisions
     00087847  _scene_room_20_collisions          scene_room_20_collisions

ASxxxx Linker V03.00 + NoICE + sdld,  page 88.
Hexadecimal  [32-Bits]

Area                                    Addr        Size        Decimal Bytes (Attributes)
--------------------------------        ----        ----        ------- ----- ------------
_CODE_10                            000A4000    00003FFF =       16383. bytes (REL,CON)

      Value  Global                              Global Defined In Module
      -----  --------------------------------   ------------------------
     000A4000  ___func_bg_room01_tileset          bg_room01_tileset
     000A4000  _bg_room01_tileset                 bg_room01_tileset
     000A4682  ___func_bg_room11_tileset          bg_room11_tileset
     000A4682  _bg_room11_tileset                 bg_room11_tileset
     000A48D4  ___func_bg_room21_tilemap          bg_room21_tilemap
     000A48D4  _bg_room21_tilemap                 bg_room21_tilemap
     000A4FB4  ___func_bg_room22_tilemap          bg_room22_tilemap
     000A4FB4  _bg_room22_tilemap                 bg_room22_tilemap
     000A5694  ___func_bg_room23_tilemap          bg_room23_tilemap
     000A5694  _bg_room23_tilemap                 bg_room23_tilemap
     000A5D74  ___func_bg_room24_tilemap          bg_room24_tilemap
     000A5D74  _bg_room24_tilemap                 bg_room24_tilemap
     000A6454  ___func_scene_room_21_collisions   scene_room_21_collisions
     000A6454  _scene_room_21_collisions          scene_room_21_collisions
     000A6B34  ___func_scene_room_22_collisions   scene_room_22_collisions
     000A6B34  _scene_room_22_collisions          scene_room_22_collisions
     000A7214  ___func_scene_room_23_collisions   scene_room_23_collisions
     000A7214  _scene_room_23_collisions          scene_room_23_collisions
     000A78F4  ___func_scene_room_24_collisions   scene_room_24_collisions
     000A78F4  _scene_room_24_collisions          scene_room_24_collisions
     000A7FD4  ___func_sprite_empty               sprite_empty
     000A7FD4  _sprite_empty_metasprite_0         sprite_empty
     000A7FD8  _sprite_empty_metasprites          sprite_empty
     000A7FDA  _sprite_empty_animations           sprite_empty
     000A7FEA  _sprite_empty_animations_lookup    sprite_empty
     000A7FEC  _sprite_empty                      sprite_empty

ASxxxx Linker V03.00 + NoICE + sdld,  page 89.
Hexadecimal  [32-Bits]

Area                                    Addr        Size        Decimal Bytes (Attributes)
--------------------------------        ----        ----        ------- ----- ------------
_CODE_5                             00054000    00003FFF =       16383. bytes (REL,CON)

      Value  Global                              Global Defined In Module
      -----  --------------------------------   ------------------------
     00054000  ___func_font_determination_color   font_determination_color
     00054DD0  _font_determination_color          font_determination_color
     00054DD8  ___func_font_determination_light   font_determination_light
     00055BB8  _font_determination_light          font_determination_light
     00055BC0  ___func_font_determination         font_determination
     00056990  _font_determination                font_determination
     000578C9  _song_once_upon_a_time_Data        song_once_upon_a_time_Data
     000578DE  ___func_scene_battle_test_2_spri   scene_battle_test_2_sprites
     000578DE  _scene_battle_test_2_sprites       scene_battle_test_2_sprites
     000578E4  _shmup_init                        shmup
     00057980  _shmup_update                      shmup

ASxxxx Linker V03.00 + NoICE + sdld,  page 90.
Hexadecimal  [32-Bits]

Area                                    Addr        Size        Decimal Bytes (Attributes)
--------------------------------        ----        ----        ------- ----- ------------
_HEADER_LCD0                        00000000    00000003 =           3. bytes (ABS,CON)

      Value  Global                              Global Defined In Module
      -----  --------------------------------   ------------------------
ASxxxx Linker V03.00 + NoICE + sdld,  page 91.

Files Linked                              [ module(s) ]

C:\Users\Henri\AppData\Local\Temp/_gbstools/gbdk/lib/small/asxxxx/gb/crt0.o
                                          [ Runtime ]
C:/Users/Henri/AppData/Local/Temp/_gbsbuild/obj/___sdcc_bcall_ehl.rel
                                          [  ]
C:/Users/Henri/AppData/Local/Temp/_gbsbuild/obj/absolute.rel
                                          [ absolute ]
C:/Users/Henri/AppData/Local/Temp/_gbsbuild/obj/actor.rel
                                          [ actor ]
C:/Users/Henri/AppData/Local/Temp/_gbsbuild/obj/bankdata.rel
                                          [ bankdata ]
C:/Users/Henri/AppData/Local/Temp/_gbsbuild/obj/bootstrap.rel
                                          [  ]
C:/Users/Henri/AppData/Local/Temp/_gbsbuild/obj/camera.rel
                                          [ camera ]
C:/Users/Henri/AppData/Local/Temp/_gbsbuild/obj/core.rel
                                          [ core ]
C:/Users/Henri/AppData/Local/Temp/_gbsbuild/obj/crash_handler.rel
                                          [  ]
C:/Users/Henri/AppData/Local/Temp/_gbsbuild/obj/data_manager.rel
                                          [ data_manager ]
C:/Users/Henri/AppData/Local/Temp/_gbsbuild/obj/events.rel
                                          [ events ]
C:/Users/Henri/AppData/Local/Temp/_gbsbuild/obj/fade_manager.rel
                                          [ fade_manager ]
C:/Users/Henri/AppData/Local/Temp/_gbsbuild/obj/flasher_s.rel
                                          [  ]
C:/Users/Henri/AppData/Local/Temp/_gbsbuild/obj/flasher.rel
                                          [ flasher ]
C:/Users/Henri/AppData/Local/Temp/_gbsbuild/obj/game_time.rel
                                          [ game_time ]
C:/Users/Henri/AppData/Local/Temp/_gbsbuild/obj/gbprinter.rel
                                          [ gbprinter ]
C:/Users/Henri/AppData/Local/Temp/_gbsbuild/obj/input.rel
                                          [ input ]
C:/Users/Henri/AppData/Local/Temp/_gbsbuild/obj/interrupt_sio.rel
                                          [  ]
C:/Users/Henri/AppData/Local/Temp/_gbsbuild/obj/interrupt_timer.rel
                                          [  ]
C:/Users/Henri/AppData/Local/Temp/_gbsbuild/obj/interrupts.rel
                                          [ interrupts ]
C:/Users/Henri/AppData/Local/Temp/_gbsbuild/obj/load_save.rel
                                          [ load_save ]
C:/Users/Henri/AppData/Local/Temp/_gbsbuild/obj/math.rel
                                          [ math ]
C:/Users/Henri/AppData/Local/Temp/_gbsbuild/obj/music_manager.rel
                                          [ music_manager ]
C:/Users/Henri/AppData/Local/Temp/_gbsbuild/obj/palette.rel
                                          [ palette ]
C:/Users/Henri/AppData/Local/Temp/_gbsbuild/obj/parallax.rel
                                          [ parallax ]
C:/Users/Henri/AppData/Local/Temp/_gbsbuild/obj/projectiles.rel
                                          [ projectiles ]
C:/Users/Henri/AppData/Local/Temp/_gbsbuild/obj/scroll_a.rel
                                          [  ]
C:/Users/Henri/AppData/Local/Temp/_gbsbuild/obj/scroll.rel
                                          [ scroll ]
C:/Users/Henri/AppData/Local/Temp/_gbsbuild/obj/set_tile_submap.rel
                                          [  ]
C:/Users/Henri/AppData/Local/Temp/_gbsbuild/obj/sfx_player.rel
                                          [ sfx_player ]
C:/Users/Henri/AppData/Local/Temp/_gbsbuild/obj/sgb_border.rel
                                          [ sgb_border ]
C:/Users/Henri/AppData/Local/Temp/_gbsbuild/obj/sio.rel
                                          [ sio ]
C:/Users/Henri/AppData/Local/Temp/_gbsbuild/obj/states_caller.rel
                                          [  ]
C:/Users/Henri/AppData/Local/Temp/_gbsbuild/obj/system.rel
                                          [ system ]
C:/Users/Henri/AppData/Local/Temp/_gbsbuild/obj/trigger.rel
                                          [ trigger ]
C:/Users/Henri/AppData/Local/Temp/_gbsbuild/obj/ui_a.rel
                                          [  ]
C:/Users/Henri/AppData/Local/Temp/_gbsbuild/obj/ui.rel
                                          [ ui ]
C:/Users/Henri/AppData/Local/Temp/_gbsbuild/obj/vm_actor.rel
                                          [ vm_actor ]
C:/Users/Henri/AppData/Local/Temp/_gbsbuild/obj/vm_camera.rel
                                          [ vm_camera ]
C:/Users/Henri/AppData/Local/Temp/_gbsbuild/obj/vm_gameboy.rel
                                          [ vm_gameboy ]
C:/Users/Henri/AppData/Local/Temp/_gbsbuild/obj/vm_gbprinter.rel
                                          [ vm_gbprinter ]
C:/Users/Henri/AppData/Local/Temp/_gbsbuild/obj/vm_instructions.rel
                                          [ vm_instructions ]
C:/Users/Henri/AppData/Local/Temp/_gbsbuild/obj/vm_load_save.rel
                                          [ vm_load_save ]
C:/Users/Henri/AppData/Local/Temp/_gbsbuild/obj/vm_math.rel
                                          [ vm_math ]
C:/Users/Henri/AppData/Local/Temp/_gbsbuild/obj/vm_music.rel
                                          [ vm_music ]
C:/Users/Henri/AppData/Local/Temp/_gbsbuild/obj/vm_palette.rel
                                          [ vm_palette ]
C:/Users/Henri/AppData/Local/Temp/_gbsbuild/obj/vm_projectiles.rel
                                          [ vm_projectiles ]
C:/Users/Henri/AppData/Local/Temp/_gbsbuild/obj/vm_rtc.rel
                                          [ vm_rtc ]
C:/Users/Henri/AppData/Local/Temp/_gbsbuild/obj/vm_scene.rel
                                          [ vm_scene ]
C:/Users/Henri/AppData/Local/Temp/_gbsbuild/obj/vm_sgb.rel
                                          [ vm_sgb ]
C:/Users/Henri/AppData/Local/Temp/_gbsbuild/obj/vm_sio.rel
                                          [ vm_sio ]
C:/Users/Henri/AppData/Local/Temp/_gbsbuild/obj/vm_ui_a.rel
                                          [ vm_ui_a ]
C:/Users/Henri/AppData/Local/Temp/_gbsbuild/obj/vm_ui.rel
                                          [ vm_ui ]
C:/Users/Henri/AppData/Local/Temp/_gbsbuild/obj/vm.rel
                                          [ vm ]
C:/Users/Henri/AppData/Local/Temp/_gbsbuild/obj/actor_1_update.rel
                                          [ actor_1_update ]
C:/Users/Henri/AppData/Local/Temp/_gbsbuild/obj/actor_10_interact.rel
                                          [ actor_10_interact ]
C:/Users/Henri/AppData/Local/Temp/_gbsbuild/obj/actor_15_interact.rel
                                          [ actor_15_interact ]
C:/Users/Henri/AppData/Local/Temp/_gbsbuild/obj/actor_16_interact.rel
                                          [ actor_16_interact ]
C:/Users/Henri/AppData/Local/Temp/_gbsbuild/obj/actor_17_interact.rel
                                          [ actor_17_interact ]
C:/Users/Henri/AppData/Local/Temp/_gbsbuild/obj/actor_18_interact.rel
                                          [ actor_18_interact ]
C:/Users/Henri/AppData/Local/Temp/_gbsbuild/obj/actor_19_interact.rel
                                          [ actor_19_interact ]
C:/Users/Henri/AppData/Local/Temp/_gbsbuild/obj/actor_25_interact.rel
                                          [ actor_25_interact ]
C:/Users/Henri/AppData/Local/Temp/_gbsbuild/obj/actor_26_interact.rel
                                          [ actor_26_interact ]
C:/Users/Henri/AppData/Local/Temp/_gbsbuild/obj/actor_27_interact.rel
                                          [ actor_27_interact ]
C:/Users/Henri/AppData/Local/Temp/_gbsbuild/obj/actor_28_interact.rel
                                          [ actor_28_interact ]
C:/Users/Henri/AppData/Local/Temp/_gbsbuild/obj/actor_29_interact.rel
                                          [ actor_29_interact ]
C:/Users/Henri/AppData/Local/Temp/_gbsbuild/obj/actor_32_interact.rel
                                          [ actor_32_interact ]
C:/Users/Henri/AppData/Local/Temp/_gbsbuild/obj/actor_34_update.rel
                                          [ actor_34_update ]
C:/Users/Henri/AppData/Local/Temp/_gbsbuild/obj/actor_37_update.rel
                                          [ actor_37_update ]
C:/Users/Henri/AppData/Local/Temp/_gbsbuild/obj/actor_38_update.rel
                                          [ actor_38_update ]
C:/Users/Henri/AppData/Local/Temp/_gbsbuild/obj/actor_39_update.rel
                                          [ actor_39_update ]
C:/Users/Henri/AppData/Local/Temp/_gbsbuild/obj/actor_5_update.rel
                                          [ actor_5_update ]
C:/Users/Henri/AppData/Local/Temp/_gbsbuild/obj/actor_7_interact.rel
                                          [ actor_7_interact ]
C:/Users/Henri/AppData/Local/Temp/_gbsbuild/obj/actor_9_interact.rel
                                          [ actor_9_interact ]
C:/Users/Henri/AppData/Local/Temp/_gbsbuild/obj/actor_pattern_handler_update.rel
                                          [ actor_pattern_handler_update ]
C:/Users/Henri/AppData/Local/Temp/_gbsbuild/obj/bg_battle1_test_tilemap_attr.rel
                                          [ bg_battle1_test_tilemap_attr ]
C:/Users/Henri/AppData/Local/Temp/_gbsbuild/obj/bg_battle1_test_tilemap.rel
                                          [ bg_battle1_test_tilemap ]
C:/Users/Henri/AppData/Local/Temp/_gbsbuild/obj/bg_battle1_test_tileset.rel
                                          [ bg_battle1_test_tileset ]
C:/Users/Henri/AppData/Local/Temp/_gbsbuild/obj/bg_battle1_test.rel
                                          [ bg_battle1_test ]
C:/Users/Henri/AppData/Local/Temp/_gbsbuild/obj/bg_battle2_test_tilemap.rel
                                          [ bg_battle2_test_tilemap ]
C:/Users/Henri/AppData/Local/Temp/_gbsbuild/obj/bg_battle2_test_tileset.rel
                                          [ bg_battle2_test_tileset ]
C:/Users/Henri/AppData/Local/Temp/_gbsbuild/obj/bg_battle2_test.rel
                                          [ bg_battle2_test ]
C:/Users/Henri/AppData/Local/Temp/_gbsbuild/obj/bg_battlemockup_tilemap_attr.rel
                                          [ bg_battlemockup_tilemap_attr ]
C:/Users/Henri/AppData/Local/Temp/_gbsbuild/obj/bg_battlemockup_tilemap.rel
                                          [ bg_battlemockup_tilemap ]
C:/Users/Henri/AppData/Local/Temp/_gbsbuild/obj/bg_battlemockup_tileset.rel
                                          [ bg_battlemockup_tileset ]
C:/Users/Henri/AppData/Local/Temp/_gbsbuild/obj/bg_battlemockup.rel
                                          [ bg_battlemockup ]
C:/Users/Henri/AppData/Local/Temp/_gbsbuild/obj/bg_gameover_tilemap.rel
                                          [ bg_gameover_tilemap ]
C:/Users/Henri/AppData/Local/Temp/_gbsbuild/obj/bg_gameover_tileset.rel
                                          [ bg_gameover_tileset ]
C:/Users/Henri/AppData/Local/Temp/_gbsbuild/obj/bg_gameover.rel
                                          [ bg_gameover ]
C:/Users/Henri/AppData/Local/Temp/_gbsbuild/obj/bg_intro01_tilemap_attr.rel
                                          [ bg_intro01_tilemap_attr ]
C:/Users/Henri/AppData/Local/Temp/_gbsbuild/obj/bg_intro01_tilemap.rel
                                          [ bg_intro01_tilemap ]
C:/Users/Henri/AppData/Local/Temp/_gbsbuild/obj/bg_intro01_tileset.rel
                                          [ bg_intro01_tileset ]
C:/Users/Henri/AppData/Local/Temp/_gbsbuild/obj/bg_intro01.rel
                                          [ bg_intro01 ]
C:/Users/Henri/AppData/Local/Temp/_gbsbuild/obj/bg_intro02_tilemap.rel
                                          [ bg_intro02_tilemap ]
C:/Users/Henri/AppData/Local/Temp/_gbsbuild/obj/bg_intro02_tileset.rel
                                          [ bg_intro02_tileset ]
C:/Users/Henri/AppData/Local/Temp/_gbsbuild/obj/bg_intro02.rel
                                          [ bg_intro02 ]
C:/Users/Henri/AppData/Local/Temp/_gbsbuild/obj/bg_intro03_tilemap.rel
                                          [ bg_intro03_tilemap ]
C:/Users/Henri/AppData/Local/Temp/_gbsbuild/obj/bg_intro03_tileset.rel
                                          [ bg_intro03_tileset ]
C:/Users/Henri/AppData/Local/Temp/_gbsbuild/obj/bg_intro03.rel
                                          [ bg_intro03 ]
C:/Users/Henri/AppData/Local/Temp/_gbsbuild/obj/bg_intro04_tilemap.rel
                                          [ bg_intro04_tilemap ]
C:/Users/Henri/AppData/Local/Temp/_gbsbuild/obj/bg_intro04_tileset.rel
                                          [ bg_intro04_tileset ]
C:/Users/Henri/AppData/Local/Temp/_gbsbuild/obj/bg_intro04.rel
                                          [ bg_intro04 ]
C:/Users/Henri/AppData/Local/Temp/_gbsbuild/obj/bg_intro05_tilemap.rel
                                          [ bg_intro05_tilemap ]
C:/Users/Henri/AppData/Local/Temp/_gbsbuild/obj/bg_intro05_tileset.rel
                                          [ bg_intro05_tileset ]
C:/Users/Henri/AppData/Local/Temp/_gbsbuild/obj/bg_intro05.rel
                                          [ bg_intro05 ]
C:/Users/Henri/AppData/Local/Temp/_gbsbuild/obj/bg_intro06_tilemap.rel
                                          [ bg_intro06_tilemap ]
C:/Users/Henri/AppData/Local/Temp/_gbsbuild/obj/bg_intro06_tileset.rel
                                          [ bg_intro06_tileset ]
C:/Users/Henri/AppData/Local/Temp/_gbsbuild/obj/bg_intro06.rel
                                          [ bg_intro06 ]
C:/Users/Henri/AppData/Local/Temp/_gbsbuild/obj/bg_intro07_tilemap.rel
                                          [ bg_intro07_tilemap ]
C:/Users/Henri/AppData/Local/Temp/_gbsbuild/obj/bg_intro07_tileset.rel
                                          [ bg_intro07_tileset ]
C:/Users/Henri/AppData/Local/Temp/_gbsbuild/obj/bg_intro07.rel
                                          [ bg_intro07 ]
C:/Users/Henri/AppData/Local/Temp/_gbsbuild/obj/bg_introtemplate_tilemap.rel
                                          [ bg_introtemplate_tilemap ]
C:/Users/Henri/AppData/Local/Temp/_gbsbuild/obj/bg_introtemplate_tileset.rel
                                          [ bg_introtemplate_tileset ]
C:/Users/Henri/AppData/Local/Temp/_gbsbuild/obj/bg_introtemplate.rel
                                          [ bg_introtemplate ]
C:/Users/Henri/AppData/Local/Temp/_gbsbuild/obj/bg_loadmenu_tilemap_attr.rel
                                          [ bg_loadmenu_tilemap_attr ]
C:/Users/Henri/AppData/Local/Temp/_gbsbuild/obj/bg_loadmenu_tilemap.rel
                                          [ bg_loadmenu_tilemap ]
C:/Users/Henri/AppData/Local/Temp/_gbsbuild/obj/bg_loadmenu_tileset.rel
                                          [ bg_loadmenu_tileset ]
C:/Users/Henri/AppData/Local/Temp/_gbsbuild/obj/bg_loadmenu.rel
                                          [ bg_loadmenu ]
C:/Users/Henri/AppData/Local/Temp/_gbsbuild/obj/bg_logo_tilemap.rel
                                          [ bg_logo_tilemap ]
C:/Users/Henri/AppData/Local/Temp/_gbsbuild/obj/bg_logo_tileset.rel
                                          [ bg_logo_tileset ]
C:/Users/Henri/AppData/Local/Temp/_gbsbuild/obj/bg_logo.rel
                                          [ bg_logo ]
C:/Users/Henri/AppData/Local/Temp/_gbsbuild/obj/bg_room01_tilemap_attr.rel
                                          [ bg_room01_tilemap_attr ]
C:/Users/Henri/AppData/Local/Temp/_gbsbuild/obj/bg_room01_tilemap.rel
                                          [ bg_room01_tilemap ]
C:/Users/Henri/AppData/Local/Temp/_gbsbuild/obj/bg_room01_tileset.rel
                                          [ bg_room01_tileset ]
C:/Users/Henri/AppData/Local/Temp/_gbsbuild/obj/bg_room01.rel
                                          [ bg_room01 ]
C:/Users/Henri/AppData/Local/Temp/_gbsbuild/obj/bg_room02_tilemap_attr.rel
                                          [ bg_room02_tilemap_attr ]
C:/Users/Henri/AppData/Local/Temp/_gbsbuild/obj/bg_room02_tilemap.rel
                                          [ bg_room02_tilemap ]
C:/Users/Henri/AppData/Local/Temp/_gbsbuild/obj/bg_room02_tileset.rel
                                          [ bg_room02_tileset ]
C:/Users/Henri/AppData/Local/Temp/_gbsbuild/obj/bg_room02.rel
                                          [ bg_room02 ]
C:/Users/Henri/AppData/Local/Temp/_gbsbuild/obj/bg_room03_tilemap_attr.rel
                                          [ bg_room03_tilemap_attr ]
C:/Users/Henri/AppData/Local/Temp/_gbsbuild/obj/bg_room03_tilemap.rel
                                          [ bg_room03_tilemap ]
C:/Users/Henri/AppData/Local/Temp/_gbsbuild/obj/bg_room03_tileset.rel
                                          [ bg_room03_tileset ]
C:/Users/Henri/AppData/Local/Temp/_gbsbuild/obj/bg_room03.rel
                                          [ bg_room03 ]
C:/Users/Henri/AppData/Local/Temp/_gbsbuild/obj/bg_room04_tilemap_attr.rel
                                          [ bg_room04_tilemap_attr ]
C:/Users/Henri/AppData/Local/Temp/_gbsbuild/obj/bg_room04_tilemap.rel
                                          [ bg_room04_tilemap ]
C:/Users/Henri/AppData/Local/Temp/_gbsbuild/obj/bg_room04_tileset.rel
                                          [ bg_room04_tileset ]
C:/Users/Henri/AppData/Local/Temp/_gbsbuild/obj/bg_room04.rel
                                          [ bg_room04 ]
C:/Users/Henri/AppData/Local/Temp/_gbsbuild/obj/bg_room05_tilemap_attr.rel
                                          [ bg_room05_tilemap_attr ]
C:/Users/Henri/AppData/Local/Temp/_gbsbuild/obj/bg_room05_tilemap.rel
                                          [ bg_room05_tilemap ]
C:/Users/Henri/AppData/Local/Temp/_gbsbuild/obj/bg_room05_tileset.rel
                                          [ bg_room05_tileset ]
C:/Users/Henri/AppData/Local/Temp/_gbsbuild/obj/bg_room05.rel
                                          [ bg_room05 ]
C:/Users/Henri/AppData/Local/Temp/_gbsbuild/obj/bg_room06_tilemap_attr.rel
                                          [ bg_room06_tilemap_attr ]
C:/Users/Henri/AppData/Local/Temp/_gbsbuild/obj/bg_room06_tilemap.rel
                                          [ bg_room06_tilemap ]
C:/Users/Henri/AppData/Local/Temp/_gbsbuild/obj/bg_room06_tileset.rel
                                          [ bg_room06_tileset ]
C:/Users/Henri/AppData/Local/Temp/_gbsbuild/obj/bg_room06.rel
                                          [ bg_room06 ]
C:/Users/Henri/AppData/Local/Temp/_gbsbuild/obj/bg_room07_test__tilemap_attr.rel
                                          [ bg_room07_test__tilemap_attr ]
C:/Users/Henri/AppData/Local/Temp/_gbsbuild/obj/bg_room07_test__tilemap.rel
                                          [ bg_room07_test__tilemap ]
C:/Users/Henri/AppData/Local/Temp/_gbsbuild/obj/bg_room07_test__tileset.rel
                                          [ bg_room07_test__tileset ]
C:/Users/Henri/AppData/Local/Temp/_gbsbuild/obj/bg_room07_test_.rel
                                          [ bg_room07_test_ ]
C:/Users/Henri/AppData/Local/Temp/_gbsbuild/obj/bg_room08_tilemap_attr.rel
                                          [ bg_room08_tilemap_attr ]
C:/Users/Henri/AppData/Local/Temp/_gbsbuild/obj/bg_room08_tilemap.rel
                                          [ bg_room08_tilemap ]
C:/Users/Henri/AppData/Local/Temp/_gbsbuild/obj/bg_room08_tileset.rel
                                          [ bg_room08_tileset ]
C:/Users/Henri/AppData/Local/Temp/_gbsbuild/obj/bg_room08.rel
                                          [ bg_room08 ]
C:/Users/Henri/AppData/Local/Temp/_gbsbuild/obj/bg_room09_tilemap_attr.rel
                                          [ bg_room09_tilemap_attr ]
C:/Users/Henri/AppData/Local/Temp/_gbsbuild/obj/bg_room09_tilemap.rel
                                          [ bg_room09_tilemap ]
C:/Users/Henri/AppData/Local/Temp/_gbsbuild/obj/bg_room09_tileset.rel
                                          [ bg_room09_tileset ]
C:/Users/Henri/AppData/Local/Temp/_gbsbuild/obj/bg_room09.rel
                                          [ bg_room09 ]
C:/Users/Henri/AppData/Local/Temp/_gbsbuild/obj/bg_room10_tilemap_attr.rel
                                          [ bg_room10_tilemap_attr ]
C:/Users/Henri/AppData/Local/Temp/_gbsbuild/obj/bg_room10_tilemap.rel
                                          [ bg_room10_tilemap ]
C:/Users/Henri/AppData/Local/Temp/_gbsbuild/obj/bg_room10_tileset.rel
                                          [ bg_room10_tileset ]
C:/Users/Henri/AppData/Local/Temp/_gbsbuild/obj/bg_room10.rel
                                          [ bg_room10 ]
C:/Users/Henri/AppData/Local/Temp/_gbsbuild/obj/bg_room11_tilemap_attr.rel
                                          [ bg_room11_tilemap_attr ]
C:/Users/Henri/AppData/Local/Temp/_gbsbuild/obj/bg_room11_tilemap.rel
                                          [ bg_room11_tilemap ]
C:/Users/Henri/AppData/Local/Temp/_gbsbuild/obj/bg_room11_tileset.rel
                                          [ bg_room11_tileset ]
C:/Users/Henri/AppData/Local/Temp/_gbsbuild/obj/bg_room11.rel
                                          [ bg_room11 ]
C:/Users/Henri/AppData/Local/Temp/_gbsbuild/obj/bg_room12_tilemap_attr.rel
                                          [ bg_room12_tilemap_attr ]
C:/Users/Henri/AppData/Local/Temp/_gbsbuild/obj/bg_room12_tilemap.rel
                                          [ bg_room12_tilemap ]
C:/Users/Henri/AppData/Local/Temp/_gbsbuild/obj/bg_room12_tileset.rel
                                          [ bg_room12_tileset ]
C:/Users/Henri/AppData/Local/Temp/_gbsbuild/obj/bg_room12.rel
                                          [ bg_room12 ]
C:/Users/Henri/AppData/Local/Temp/_gbsbuild/obj/bg_room13_tilemap_attr.rel
                                          [ bg_room13_tilemap_attr ]
C:/Users/Henri/AppData/Local/Temp/_gbsbuild/obj/bg_room13_tilemap.rel
                                          [ bg_room13_tilemap ]
C:/Users/Henri/AppData/Local/Temp/_gbsbuild/obj/bg_room13_tileset.rel
                                          [ bg_room13_tileset ]
C:/Users/Henri/AppData/Local/Temp/_gbsbuild/obj/bg_room13.rel
                                          [ bg_room13 ]
C:/Users/Henri/AppData/Local/Temp/_gbsbuild/obj/bg_room14_tilemap_attr.rel
                                          [ bg_room14_tilemap_attr ]
C:/Users/Henri/AppData/Local/Temp/_gbsbuild/obj/bg_room14_tilemap.rel
                                          [ bg_room14_tilemap ]
C:/Users/Henri/AppData/Local/Temp/_gbsbuild/obj/bg_room14_tileset.rel
                                          [ bg_room14_tileset ]
C:/Users/Henri/AppData/Local/Temp/_gbsbuild/obj/bg_room14.rel
                                          [ bg_room14 ]
C:/Users/Henri/AppData/Local/Temp/_gbsbuild/obj/bg_room15_tilemap_attr.rel
                                          [ bg_room15_tilemap_attr ]
C:/Users/Henri/AppData/Local/Temp/_gbsbuild/obj/bg_room15_tilemap.rel
                                          [ bg_room15_tilemap ]
C:/Users/Henri/AppData/Local/Temp/_gbsbuild/obj/bg_room15_tileset.rel
                                          [ bg_room15_tileset ]
C:/Users/Henri/AppData/Local/Temp/_gbsbuild/obj/bg_room15.rel
                                          [ bg_room15 ]
C:/Users/Henri/AppData/Local/Temp/_gbsbuild/obj/bg_room16_tilemap_attr.rel
                                          [ bg_room16_tilemap_attr ]
C:/Users/Henri/AppData/Local/Temp/_gbsbuild/obj/bg_room16_tilemap.rel
                                          [ bg_room16_tilemap ]
C:/Users/Henri/AppData/Local/Temp/_gbsbuild/obj/bg_room16_tileset.rel
                                          [ bg_room16_tileset ]
C:/Users/Henri/AppData/Local/Temp/_gbsbuild/obj/bg_room16.rel
                                          [ bg_room16 ]
C:/Users/Henri/AppData/Local/Temp/_gbsbuild/obj/bg_room17_tilemap.rel
                                          [ bg_room17_tilemap ]
C:/Users/Henri/AppData/Local/Temp/_gbsbuild/obj/bg_room17_tileset.rel
                                          [ bg_room17_tileset ]
C:/Users/Henri/AppData/Local/Temp/_gbsbuild/obj/bg_room17.rel
                                          [ bg_room17 ]
C:/Users/Henri/AppData/Local/Temp/_gbsbuild/obj/bg_room18_tilemap_attr.rel
                                          [ bg_room18_tilemap_attr ]
C:/Users/Henri/AppData/Local/Temp/_gbsbuild/obj/bg_room18_tilemap.rel
                                          [ bg_room18_tilemap ]
C:/Users/Henri/AppData/Local/Temp/_gbsbuild/obj/bg_room18_tileset.rel
                                          [ bg_room18_tileset ]
C:/Users/Henri/AppData/Local/Temp/_gbsbuild/obj/bg_room18.rel
                                          [ bg_room18 ]
C:/Users/Henri/AppData/Local/Temp/_gbsbuild/obj/bg_room19_tilemap_attr.rel
                                          [ bg_room19_tilemap_attr ]
C:/Users/Henri/AppData/Local/Temp/_gbsbuild/obj/bg_room19_tilemap.rel
                                          [ bg_room19_tilemap ]
C:/Users/Henri/AppData/Local/Temp/_gbsbuild/obj/bg_room19_tileset.rel
                                          [ bg_room19_tileset ]
C:/Users/Henri/AppData/Local/Temp/_gbsbuild/obj/bg_room19.rel
                                          [ bg_room19 ]
C:/Users/Henri/AppData/Local/Temp/_gbsbuild/obj/bg_room20_tilemap_attr.rel
                                          [ bg_room20_tilemap_attr ]
C:/Users/Henri/AppData/Local/Temp/_gbsbuild/obj/bg_room20_tilemap.rel
                                          [ bg_room20_tilemap ]
C:/Users/Henri/AppData/Local/Temp/_gbsbuild/obj/bg_room20_tileset.rel
                                          [ bg_room20_tileset ]
C:/Users/Henri/AppData/Local/Temp/_gbsbuild/obj/bg_room20.rel
                                          [ bg_room20 ]
C:/Users/Henri/AppData/Local/Temp/_gbsbuild/obj/bg_room21_tilemap_attr.rel
                                          [ bg_room21_tilemap_attr ]
C:/Users/Henri/AppData/Local/Temp/_gbsbuild/obj/bg_room21_tilemap.rel
                                          [ bg_room21_tilemap ]
C:/Users/Henri/AppData/Local/Temp/_gbsbuild/obj/bg_room21_tileset.rel
                                          [ bg_room21_tileset ]
C:/Users/Henri/AppData/Local/Temp/_gbsbuild/obj/bg_room21.rel
                                          [ bg_room21 ]
C:/Users/Henri/AppData/Local/Temp/_gbsbuild/obj/bg_room22_tilemap.rel
                                          [ bg_room22_tilemap ]
C:/Users/Henri/AppData/Local/Temp/_gbsbuild/obj/bg_room22_tileset.rel
                                          [ bg_room22_tileset ]
C:/Users/Henri/AppData/Local/Temp/_gbsbuild/obj/bg_room22.rel
                                          [ bg_room22 ]
C:/Users/Henri/AppData/Local/Temp/_gbsbuild/obj/bg_room23_tilemap.rel
                                          [ bg_room23_tilemap ]
C:/Users/Henri/AppData/Local/Temp/_gbsbuild/obj/bg_room23_tileset.rel
                                          [ bg_room23_tileset ]
C:/Users/Henri/AppData/Local/Temp/_gbsbuild/obj/bg_room23.rel
                                          [ bg_room23 ]
C:/Users/Henri/AppData/Local/Temp/_gbsbuild/obj/bg_room24_tilemap.rel
                                          [ bg_room24_tilemap ]
C:/Users/Henri/AppData/Local/Temp/_gbsbuild/obj/bg_room24_tileset.rel
                                          [ bg_room24_tileset ]
C:/Users/Henri/AppData/Local/Temp/_gbsbuild/obj/bg_room24.rel
                                          [ bg_room24 ]
C:/Users/Henri/AppData/Local/Temp/_gbsbuild/obj/bg_room25_tilemap_attr.rel
                                          [ bg_room25_tilemap_attr ]
C:/Users/Henri/AppData/Local/Temp/_gbsbuild/obj/bg_room25_tilemap.rel
                                          [ bg_room25_tilemap ]
C:/Users/Henri/AppData/Local/Temp/_gbsbuild/obj/bg_room25_tileset.rel
                                          [ bg_room25_tileset ]
C:/Users/Henri/AppData/Local/Temp/_gbsbuild/obj/bg_room25.rel
                                          [ bg_room25 ]
C:/Users/Henri/AppData/Local/Temp/_gbsbuild/obj/bg_tilebank_misc_tilemap_attr.rel
                                          [ bg_tilebank_misc_tilemap_attr ]
C:/Users/Henri/AppData/Local/Temp/_gbsbuild/obj/bg_tilebank_misc_tilemap.rel
                                          [ bg_tilebank_misc_tilemap ]
C:/Users/Henri/AppData/Local/Temp/_gbsbuild/obj/bg_tilebank_misc_tileset.rel
                                          [ bg_tilebank_misc_tileset ]
C:/Users/Henri/AppData/Local/Temp/_gbsbuild/obj/bg_tilebank_misc.rel
                                          [ bg_tilebank_misc ]
C:/Users/Henri/AppData/Local/Temp/_gbsbuild/obj/bg_tilebank_water_tilemap.rel
                                          [ bg_tilebank_water_tilemap ]
C:/Users/Henri/AppData/Local/Temp/_gbsbuild/obj/bg_tilebank_water_tileset.rel
                                          [ bg_tilebank_water_tileset ]
C:/Users/Henri/AppData/Local/Temp/_gbsbuild/obj/bg_tilebank_water.rel
                                          [ bg_tilebank_water ]
C:/Users/Henri/AppData/Local/Temp/_gbsbuild/obj/cursor_image.rel
                                          [ cursor_image ]
C:/Users/Henri/AppData/Local/Temp/_gbsbuild/obj/font_determination_color.rel
                                          [ font_determination_color ]
C:/Users/Henri/AppData/Local/Temp/_gbsbuild/obj/font_determination_light.rel
                                          [ font_determination_light ]
C:/Users/Henri/AppData/Local/Temp/_gbsbuild/obj/font_determination.rel
                                          [ font_determination ]
C:/Users/Henri/AppData/Local/Temp/_gbsbuild/obj/frame_image.rel
                                          [ frame_image ]
C:/Users/Henri/AppData/Local/Temp/_gbsbuild/obj/game_signature.rel
                                          [ game_signature ]
C:/Users/Henri/AppData/Local/Temp/_gbsbuild/obj/song_once_upon_a_time_Data.rel
                                          [ song_once_upon_a_time_Data ]
C:/Users/Henri/AppData/Local/Temp/_gbsbuild/obj/song_ruins_Data.rel
                                          [ song_ruins_Data ]
C:/Users/Henri/AppData/Local/Temp/_gbsbuild/obj/song_start_menu_Data.rel
                                          [ song_start_menu_Data ]
C:/Users/Henri/AppData/Local/Temp/_gbsbuild/obj/palette_0.rel
                                          [ palette_0 ]
C:/Users/Henri/AppData/Local/Temp/_gbsbuild/obj/palette_1.rel
                                          [ palette_1 ]
C:/Users/Henri/AppData/Local/Temp/_gbsbuild/obj/palette_10.rel
                                          [ palette_10 ]
C:/Users/Henri/AppData/Local/Temp/_gbsbuild/obj/palette_11.rel
                                          [ palette_11 ]
C:/Users/Henri/AppData/Local/Temp/_gbsbuild/obj/palette_12.rel
                                          [ palette_12 ]
C:/Users/Henri/AppData/Local/Temp/_gbsbuild/obj/palette_13.rel
                                          [ palette_13 ]
C:/Users/Henri/AppData/Local/Temp/_gbsbuild/obj/palette_14.rel
                                          [ palette_14 ]
C:/Users/Henri/AppData/Local/Temp/_gbsbuild/obj/palette_15.rel
                                          [ palette_15 ]
C:/Users/Henri/AppData/Local/Temp/_gbsbuild/obj/palette_16.rel
                                          [ palette_16 ]
C:/Users/Henri/AppData/Local/Temp/_gbsbuild/obj/palette_17.rel
                                          [ palette_17 ]
C:/Users/Henri/AppData/Local/Temp/_gbsbuild/obj/palette_18.rel
                                          [ palette_18 ]
C:/Users/Henri/AppData/Local/Temp/_gbsbuild/obj/palette_19.rel
                                          [ palette_19 ]
C:/Users/Henri/AppData/Local/Temp/_gbsbuild/obj/palette_2.rel
                                          [ palette_2 ]
C:/Users/Henri/AppData/Local/Temp/_gbsbuild/obj/palette_20.rel
                                          [ palette_20 ]
C:/Users/Henri/AppData/Local/Temp/_gbsbuild/obj/palette_21.rel
                                          [ palette_21 ]
C:/Users/Henri/AppData/Local/Temp/_gbsbuild/obj/palette_22.rel
                                          [ palette_22 ]
C:/Users/Henri/AppData/Local/Temp/_gbsbuild/obj/palette_3.rel
                                          [ palette_3 ]
C:/Users/Henri/AppData/Local/Temp/_gbsbuild/obj/palette_4.rel
                                          [ palette_4 ]
C:/Users/Henri/AppData/Local/Temp/_gbsbuild/obj/palette_5.rel
                                          [ palette_5 ]
C:/Users/Henri/AppData/Local/Temp/_gbsbuild/obj/palette_6.rel
                                          [ palette_6 ]
C:/Users/Henri/AppData/Local/Temp/_gbsbuild/obj/palette_7.rel
                                          [ palette_7 ]
C:/Users/Henri/AppData/Local/Temp/_gbsbuild/obj/palette_8.rel
                                          [ palette_8 ]
C:/Users/Henri/AppData/Local/Temp/_gbsbuild/obj/palette_9.rel
                                          [ palette_9 ]
C:/Users/Henri/AppData/Local/Temp/_gbsbuild/obj/scene_40_collisions.rel
                                          [ scene_40_collisions ]
C:/Users/Henri/AppData/Local/Temp/_gbsbuild/obj/scene_40_init.rel
                                          [ scene_40_init ]
C:/Users/Henri/AppData/Local/Temp/_gbsbuild/obj/scene_40.rel
                                          [ scene_40 ]
C:/Users/Henri/AppData/Local/Temp/_gbsbuild/obj/scene_41_collisions.rel
                                          [ scene_41_collisions ]
C:/Users/Henri/AppData/Local/Temp/_gbsbuild/obj/scene_41_init.rel
                                          [ scene_41_init ]
C:/Users/Henri/AppData/Local/Temp/_gbsbuild/obj/scene_41.rel
                                          [ scene_41 ]
C:/Users/Henri/AppData/Local/Temp/_gbsbuild/obj/scene_battle_test__actors.rel
                                          [ scene_battle_test__actors ]
C:/Users/Henri/AppData/Local/Temp/_gbsbuild/obj/scene_battle_test__collisions.rel
                                          [ scene_battle_test__collisions ]
C:/Users/Henri/AppData/Local/Temp/_gbsbuild/obj/scene_battle_test__init.rel
                                          [ scene_battle_test__init ]
C:/Users/Henri/AppData/Local/Temp/_gbsbuild/obj/scene_battle_test__p_hit1.rel
                                          [ scene_battle_test__p_hit1 ]
C:/Users/Henri/AppData/Local/Temp/_gbsbuild/obj/scene_battle_test__projectiles.rel
                                          [ scene_battle_test__projectiles ]
C:/Users/Henri/AppData/Local/Temp/_gbsbuild/obj/scene_battle_test__sprites.rel
                                          [ scene_battle_test__sprites ]
C:/Users/Henri/AppData/Local/Temp/_gbsbuild/obj/scene_battle_test_.rel
                                          [ scene_battle_test_ ]
C:/Users/Henri/AppData/Local/Temp/_gbsbuild/obj/scene_battle_test_1_actors.rel
                                          [ scene_battle_test_1_actors ]
C:/Users/Henri/AppData/Local/Temp/_gbsbuild/obj/scene_battle_test_1_collisions.rel
                                          [ scene_battle_test_1_collisions ]
C:/Users/Henri/AppData/Local/Temp/_gbsbuild/obj/scene_battle_test_1_init.rel
                                          [ scene_battle_test_1_init ]
C:/Users/Henri/AppData/Local/Temp/_gbsbuild/obj/scene_battle_test_1_sprites.rel
                                          [ scene_battle_test_1_sprites ]
C:/Users/Henri/AppData/Local/Temp/_gbsbuild/obj/scene_battle_test_1.rel
                                          [ scene_battle_test_1 ]
C:/Users/Henri/AppData/Local/Temp/_gbsbuild/obj/scene_battle_test_2_actors.rel
                                          [ scene_battle_test_2_actors ]
C:/Users/Henri/AppData/Local/Temp/_gbsbuild/obj/scene_battle_test_2_collisions.rel
                                          [ scene_battle_test_2_collisions ]
C:/Users/Henri/AppData/Local/Temp/_gbsbuild/obj/scene_battle_test_2_init.rel
                                          [ scene_battle_test_2_init ]
C:/Users/Henri/AppData/Local/Temp/_gbsbuild/obj/scene_battle_test_2_p_hit1.rel
                                          [ scene_battle_test_2_p_hit1 ]
C:/Users/Henri/AppData/Local/Temp/_gbsbuild/obj/scene_battle_test_2_projectiles.rel
                                          [ scene_battle_test_2_projectiles ]
C:/Users/Henri/AppData/Local/Temp/_gbsbuild/obj/scene_battle_test_2_sprites.rel
                                          [ scene_battle_test_2_sprites ]
C:/Users/Henri/AppData/Local/Temp/_gbsbuild/obj/scene_battle_test_2.rel
                                          [ scene_battle_test_2 ]
C:/Users/Henri/AppData/Local/Temp/_gbsbuild/obj/scene_debug_collisions.rel
                                          [ scene_debug_collisions ]
C:/Users/Henri/AppData/Local/Temp/_gbsbuild/obj/scene_debug_init.rel
                                          [ scene_debug_init ]
C:/Users/Henri/AppData/Local/Temp/_gbsbuild/obj/scene_debug.rel
                                          [ scene_debug ]
C:/Users/Henri/AppData/Local/Temp/_gbsbuild/obj/scene_gameover_collisions.rel
                                          [ scene_gameover_collisions ]
C:/Users/Henri/AppData/Local/Temp/_gbsbuild/obj/scene_gameover_init.rel
                                          [ scene_gameover_init ]
C:/Users/Henri/AppData/Local/Temp/_gbsbuild/obj/scene_gameover.rel
                                          [ scene_gameover ]
C:/Users/Henri/AppData/Local/Temp/_gbsbuild/obj/scene_intro_01_collisions.rel
                                          [ scene_intro_01_collisions ]
C:/Users/Henri/AppData/Local/Temp/_gbsbuild/obj/scene_intro_01_init.rel
                                          [ scene_intro_01_init ]
C:/Users/Henri/AppData/Local/Temp/_gbsbuild/obj/scene_intro_01.rel
                                          [ scene_intro_01 ]
C:/Users/Henri/AppData/Local/Temp/_gbsbuild/obj/scene_intro_02_collisions.rel
                                          [ scene_intro_02_collisions ]
C:/Users/Henri/AppData/Local/Temp/_gbsbuild/obj/scene_intro_02_init.rel
                                          [ scene_intro_02_init ]
C:/Users/Henri/AppData/Local/Temp/_gbsbuild/obj/scene_intro_02.rel
                                          [ scene_intro_02 ]
C:/Users/Henri/AppData/Local/Temp/_gbsbuild/obj/scene_intro_03_collisions.rel
                                          [ scene_intro_03_collisions ]
C:/Users/Henri/AppData/Local/Temp/_gbsbuild/obj/scene_intro_03_init.rel
                                          [ scene_intro_03_init ]
C:/Users/Henri/AppData/Local/Temp/_gbsbuild/obj/scene_intro_03.rel
                                          [ scene_intro_03 ]
C:/Users/Henri/AppData/Local/Temp/_gbsbuild/obj/scene_intro_04_collisions.rel
                                          [ scene_intro_04_collisions ]
C:/Users/Henri/AppData/Local/Temp/_gbsbuild/obj/scene_intro_04_init.rel
                                          [ scene_intro_04_init ]
C:/Users/Henri/AppData/Local/Temp/_gbsbuild/obj/scene_intro_04.rel
                                          [ scene_intro_04 ]
C:/Users/Henri/AppData/Local/Temp/_gbsbuild/obj/scene_intro_05_collisions.rel
                                          [ scene_intro_05_collisions ]
C:/Users/Henri/AppData/Local/Temp/_gbsbuild/obj/scene_intro_05_init.rel
                                          [ scene_intro_05_init ]
C:/Users/Henri/AppData/Local/Temp/_gbsbuild/obj/scene_intro_05.rel
                                          [ scene_intro_05 ]
C:/Users/Henri/AppData/Local/Temp/_gbsbuild/obj/scene_intro_06_collisions.rel
                                          [ scene_intro_06_collisions ]
C:/Users/Henri/AppData/Local/Temp/_gbsbuild/obj/scene_intro_06_init.rel
                                          [ scene_intro_06_init ]
C:/Users/Henri/AppData/Local/Temp/_gbsbuild/obj/scene_intro_06.rel
                                          [ scene_intro_06 ]
C:/Users/Henri/AppData/Local/Temp/_gbsbuild/obj/scene_intro_07_collisions.rel
                                          [ scene_intro_07_collisions ]
C:/Users/Henri/AppData/Local/Temp/_gbsbuild/obj/scene_intro_07_init.rel
                                          [ scene_intro_07_init ]
C:/Users/Henri/AppData/Local/Temp/_gbsbuild/obj/scene_intro_07.rel
                                          [ scene_intro_07 ]
C:/Users/Henri/AppData/Local/Temp/_gbsbuild/obj/scene_logo_collisions.rel
                                          [ scene_logo_collisions ]
C:/Users/Henri/AppData/Local/Temp/_gbsbuild/obj/scene_logo_init.rel
                                          [ scene_logo_init ]
C:/Users/Henri/AppData/Local/Temp/_gbsbuild/obj/scene_logo.rel
                                          [ scene_logo ]
C:/Users/Henri/AppData/Local/Temp/_gbsbuild/obj/scene_menu_1_collisions.rel
                                          [ scene_menu_1_collisions ]
C:/Users/Henri/AppData/Local/Temp/_gbsbuild/obj/scene_menu_1_init.rel
                                          [ scene_menu_1_init ]
C:/Users/Henri/AppData/Local/Temp/_gbsbuild/obj/scene_menu_1.rel
                                          [ scene_menu_1 ]
C:/Users/Henri/AppData/Local/Temp/_gbsbuild/obj/scene_room_01_collisions.rel
                                          [ scene_room_01_collisions ]
C:/Users/Henri/AppData/Local/Temp/_gbsbuild/obj/scene_room_01_init.rel
                                          [ scene_room_01_init ]
C:/Users/Henri/AppData/Local/Temp/_gbsbuild/obj/scene_room_01_triggers.rel
                                          [ scene_room_01_triggers ]
C:/Users/Henri/AppData/Local/Temp/_gbsbuild/obj/scene_room_01.rel
                                          [ scene_room_01 ]
C:/Users/Henri/AppData/Local/Temp/_gbsbuild/obj/scene_room_02_actors.rel
                                          [ scene_room_02_actors ]
C:/Users/Henri/AppData/Local/Temp/_gbsbuild/obj/scene_room_02_collisions.rel
                                          [ scene_room_02_collisions ]
C:/Users/Henri/AppData/Local/Temp/_gbsbuild/obj/scene_room_02_init.rel
                                          [ scene_room_02_init ]
C:/Users/Henri/AppData/Local/Temp/_gbsbuild/obj/scene_room_02_sprites.rel
                                          [ scene_room_02_sprites ]
C:/Users/Henri/AppData/Local/Temp/_gbsbuild/obj/scene_room_02_triggers.rel
                                          [ scene_room_02_triggers ]
C:/Users/Henri/AppData/Local/Temp/_gbsbuild/obj/scene_room_02.rel
                                          [ scene_room_02 ]
C:/Users/Henri/AppData/Local/Temp/_gbsbuild/obj/scene_room_03_actors.rel
                                          [ scene_room_03_actors ]
C:/Users/Henri/AppData/Local/Temp/_gbsbuild/obj/scene_room_03_collisions.rel
                                          [ scene_room_03_collisions ]
C:/Users/Henri/AppData/Local/Temp/_gbsbuild/obj/scene_room_03_init.rel
                                          [ scene_room_03_init ]
C:/Users/Henri/AppData/Local/Temp/_gbsbuild/obj/scene_room_03_sprites.rel
                                          [ scene_room_03_sprites ]
C:/Users/Henri/AppData/Local/Temp/_gbsbuild/obj/scene_room_03_triggers.rel
                                          [ scene_room_03_triggers ]
C:/Users/Henri/AppData/Local/Temp/_gbsbuild/obj/scene_room_03.rel
                                          [ scene_room_03 ]
C:/Users/Henri/AppData/Local/Temp/_gbsbuild/obj/scene_room_04_actors.rel
                                          [ scene_room_04_actors ]
C:/Users/Henri/AppData/Local/Temp/_gbsbuild/obj/scene_room_04_collisions.rel
                                          [ scene_room_04_collisions ]
C:/Users/Henri/AppData/Local/Temp/_gbsbuild/obj/scene_room_04_init.rel
                                          [ scene_room_04_init ]
C:/Users/Henri/AppData/Local/Temp/_gbsbuild/obj/scene_room_04_sprites.rel
                                          [ scene_room_04_sprites ]
C:/Users/Henri/AppData/Local/Temp/_gbsbuild/obj/scene_room_04_triggers.rel
                                          [ scene_room_04_triggers ]
C:/Users/Henri/AppData/Local/Temp/_gbsbuild/obj/scene_room_04.rel
                                          [ scene_room_04 ]
C:/Users/Henri/AppData/Local/Temp/_gbsbuild/obj/scene_room_05_actors.rel
                                          [ scene_room_05_actors ]
C:/Users/Henri/AppData/Local/Temp/_gbsbuild/obj/scene_room_05_collisions.rel
                                          [ scene_room_05_collisions ]
C:/Users/Henri/AppData/Local/Temp/_gbsbuild/obj/scene_room_05_init.rel
                                          [ scene_room_05_init ]
C:/Users/Henri/AppData/Local/Temp/_gbsbuild/obj/scene_room_05_sprites.rel
                                          [ scene_room_05_sprites ]
C:/Users/Henri/AppData/Local/Temp/_gbsbuild/obj/scene_room_05_triggers.rel
                                          [ scene_room_05_triggers ]
C:/Users/Henri/AppData/Local/Temp/_gbsbuild/obj/scene_room_05.rel
                                          [ scene_room_05 ]
C:/Users/Henri/AppData/Local/Temp/_gbsbuild/obj/scene_room_06_actors.rel
                                          [ scene_room_06_actors ]
C:/Users/Henri/AppData/Local/Temp/_gbsbuild/obj/scene_room_06_collisions.rel
                                          [ scene_room_06_collisions ]
C:/Users/Henri/AppData/Local/Temp/_gbsbuild/obj/scene_room_06_init.rel
                                          [ scene_room_06_init ]
C:/Users/Henri/AppData/Local/Temp/_gbsbuild/obj/scene_room_06_sprites.rel
                                          [ scene_room_06_sprites ]
C:/Users/Henri/AppData/Local/Temp/_gbsbuild/obj/scene_room_06_triggers.rel
                                          [ scene_room_06_triggers ]
C:/Users/Henri/AppData/Local/Temp/_gbsbuild/obj/scene_room_06.rel
                                          [ scene_room_06 ]
C:/Users/Henri/AppData/Local/Temp/_gbsbuild/obj/scene_room_07_actors.rel
                                          [ scene_room_07_actors ]
C:/Users/Henri/AppData/Local/Temp/_gbsbuild/obj/scene_room_07_collisions.rel
                                          [ scene_room_07_collisions ]
C:/Users/Henri/AppData/Local/Temp/_gbsbuild/obj/scene_room_07_init.rel
                                          [ scene_room_07_init ]
C:/Users/Henri/AppData/Local/Temp/_gbsbuild/obj/scene_room_07_sprites.rel
                                          [ scene_room_07_sprites ]
C:/Users/Henri/AppData/Local/Temp/_gbsbuild/obj/scene_room_07_triggers.rel
                                          [ scene_room_07_triggers ]
C:/Users/Henri/AppData/Local/Temp/_gbsbuild/obj/scene_room_07.rel
                                          [ scene_room_07 ]
C:/Users/Henri/AppData/Local/Temp/_gbsbuild/obj/scene_room_08_collisions.rel
                                          [ scene_room_08_collisions ]
C:/Users/Henri/AppData/Local/Temp/_gbsbuild/obj/scene_room_08_init.rel
                                          [ scene_room_08_init ]
C:/Users/Henri/AppData/Local/Temp/_gbsbuild/obj/scene_room_08_triggers.rel
                                          [ scene_room_08_triggers ]
C:/Users/Henri/AppData/Local/Temp/_gbsbuild/obj/scene_room_08.rel
                                          [ scene_room_08 ]
C:/Users/Henri/AppData/Local/Temp/_gbsbuild/obj/scene_room_09_actors.rel
                                          [ scene_room_09_actors ]
C:/Users/Henri/AppData/Local/Temp/_gbsbuild/obj/scene_room_09_collisions.rel
                                          [ scene_room_09_collisions ]
C:/Users/Henri/AppData/Local/Temp/_gbsbuild/obj/scene_room_09_init.rel
                                          [ scene_room_09_init ]
C:/Users/Henri/AppData/Local/Temp/_gbsbuild/obj/scene_room_09_sprites.rel
                                          [ scene_room_09_sprites ]
C:/Users/Henri/AppData/Local/Temp/_gbsbuild/obj/scene_room_09_triggers.rel
                                          [ scene_room_09_triggers ]
C:/Users/Henri/AppData/Local/Temp/_gbsbuild/obj/scene_room_09.rel
                                          [ scene_room_09 ]
C:/Users/Henri/AppData/Local/Temp/_gbsbuild/obj/scene_room_10_actors.rel
                                          [ scene_room_10_actors ]
C:/Users/Henri/AppData/Local/Temp/_gbsbuild/obj/scene_room_10_collisions.rel
                                          [ scene_room_10_collisions ]
C:/Users/Henri/AppData/Local/Temp/_gbsbuild/obj/scene_room_10_init.rel
                                          [ scene_room_10_init ]
C:/Users/Henri/AppData/Local/Temp/_gbsbuild/obj/scene_room_10_sprites.rel
                                          [ scene_room_10_sprites ]
C:/Users/Henri/AppData/Local/Temp/_gbsbuild/obj/scene_room_10_triggers.rel
                                          [ scene_room_10_triggers ]
C:/Users/Henri/AppData/Local/Temp/_gbsbuild/obj/scene_room_10.rel
                                          [ scene_room_10 ]
C:/Users/Henri/AppData/Local/Temp/_gbsbuild/obj/scene_room_11_collisions.rel
                                          [ scene_room_11_collisions ]
C:/Users/Henri/AppData/Local/Temp/_gbsbuild/obj/scene_room_11_init.rel
                                          [ scene_room_11_init ]
C:/Users/Henri/AppData/Local/Temp/_gbsbuild/obj/scene_room_11_triggers.rel
                                          [ scene_room_11_triggers ]
C:/Users/Henri/AppData/Local/Temp/_gbsbuild/obj/scene_room_11.rel
                                          [ scene_room_11 ]
C:/Users/Henri/AppData/Local/Temp/_gbsbuild/obj/scene_room_12_actors.rel
                                          [ scene_room_12_actors ]
C:/Users/Henri/AppData/Local/Temp/_gbsbuild/obj/scene_room_12_collisions.rel
                                          [ scene_room_12_collisions ]
C:/Users/Henri/AppData/Local/Temp/_gbsbuild/obj/scene_room_12_init.rel
                                          [ scene_room_12_init ]
C:/Users/Henri/AppData/Local/Temp/_gbsbuild/obj/scene_room_12_sprites.rel
                                          [ scene_room_12_sprites ]
C:/Users/Henri/AppData/Local/Temp/_gbsbuild/obj/scene_room_12_triggers.rel
                                          [ scene_room_12_triggers ]
C:/Users/Henri/AppData/Local/Temp/_gbsbuild/obj/scene_room_12.rel
                                          [ scene_room_12 ]
C:/Users/Henri/AppData/Local/Temp/_gbsbuild/obj/scene_room_13_actors.rel
                                          [ scene_room_13_actors ]
C:/Users/Henri/AppData/Local/Temp/_gbsbuild/obj/scene_room_13_collisions.rel
                                          [ scene_room_13_collisions ]
C:/Users/Henri/AppData/Local/Temp/_gbsbuild/obj/scene_room_13_init.rel
                                          [ scene_room_13_init ]
C:/Users/Henri/AppData/Local/Temp/_gbsbuild/obj/scene_room_13_sprites.rel
                                          [ scene_room_13_sprites ]
C:/Users/Henri/AppData/Local/Temp/_gbsbuild/obj/scene_room_13_triggers.rel
                                          [ scene_room_13_triggers ]
C:/Users/Henri/AppData/Local/Temp/_gbsbuild/obj/scene_room_13.rel
                                          [ scene_room_13 ]
C:/Users/Henri/AppData/Local/Temp/_gbsbuild/obj/scene_room_14_actors.rel
                                          [ scene_room_14_actors ]
C:/Users/Henri/AppData/Local/Temp/_gbsbuild/obj/scene_room_14_collisions.rel
                                          [ scene_room_14_collisions ]
C:/Users/Henri/AppData/Local/Temp/_gbsbuild/obj/scene_room_14_init.rel
                                          [ scene_room_14_init ]
C:/Users/Henri/AppData/Local/Temp/_gbsbuild/obj/scene_room_14_sprites.rel
                                          [ scene_room_14_sprites ]
C:/Users/Henri/AppData/Local/Temp/_gbsbuild/obj/scene_room_14_triggers.rel
                                          [ scene_room_14_triggers ]
C:/Users/Henri/AppData/Local/Temp/_gbsbuild/obj/scene_room_14.rel
                                          [ scene_room_14 ]
C:/Users/Henri/AppData/Local/Temp/_gbsbuild/obj/scene_room_15_collisions.rel
                                          [ scene_room_15_collisions ]
C:/Users/Henri/AppData/Local/Temp/_gbsbuild/obj/scene_room_15_init.rel
                                          [ scene_room_15_init ]
C:/Users/Henri/AppData/Local/Temp/_gbsbuild/obj/scene_room_15_triggers.rel
                                          [ scene_room_15_triggers ]
C:/Users/Henri/AppData/Local/Temp/_gbsbuild/obj/scene_room_15.rel
                                          [ scene_room_15 ]
C:/Users/Henri/AppData/Local/Temp/_gbsbuild/obj/scene_room_16_actors.rel
                                          [ scene_room_16_actors ]
C:/Users/Henri/AppData/Local/Temp/_gbsbuild/obj/scene_room_16_collisions.rel
                                          [ scene_room_16_collisions ]
C:/Users/Henri/AppData/Local/Temp/_gbsbuild/obj/scene_room_16_init.rel
                                          [ scene_room_16_init ]
C:/Users/Henri/AppData/Local/Temp/_gbsbuild/obj/scene_room_16_sprites.rel
                                          [ scene_room_16_sprites ]
C:/Users/Henri/AppData/Local/Temp/_gbsbuild/obj/scene_room_16_triggers.rel
                                          [ scene_room_16_triggers ]
C:/Users/Henri/AppData/Local/Temp/_gbsbuild/obj/scene_room_16.rel
                                          [ scene_room_16 ]
C:/Users/Henri/AppData/Local/Temp/_gbsbuild/obj/scene_room_17_collisions.rel
                                          [ scene_room_17_collisions ]
C:/Users/Henri/AppData/Local/Temp/_gbsbuild/obj/scene_room_17_init.rel
                                          [ scene_room_17_init ]
C:/Users/Henri/AppData/Local/Temp/_gbsbuild/obj/scene_room_17_triggers.rel
                                          [ scene_room_17_triggers ]
C:/Users/Henri/AppData/Local/Temp/_gbsbuild/obj/scene_room_17.rel
                                          [ scene_room_17 ]
C:/Users/Henri/AppData/Local/Temp/_gbsbuild/obj/scene_room_18_collisions.rel
                                          [ scene_room_18_collisions ]
C:/Users/Henri/AppData/Local/Temp/_gbsbuild/obj/scene_room_18_init.rel
                                          [ scene_room_18_init ]
C:/Users/Henri/AppData/Local/Temp/_gbsbuild/obj/scene_room_18_triggers.rel
                                          [ scene_room_18_triggers ]
C:/Users/Henri/AppData/Local/Temp/_gbsbuild/obj/scene_room_18.rel
                                          [ scene_room_18 ]
C:/Users/Henri/AppData/Local/Temp/_gbsbuild/obj/scene_room_19_collisions.rel
                                          [ scene_room_19_collisions ]
C:/Users/Henri/AppData/Local/Temp/_gbsbuild/obj/scene_room_19_init.rel
                                          [ scene_room_19_init ]
C:/Users/Henri/AppData/Local/Temp/_gbsbuild/obj/scene_room_19_triggers.rel
                                          [ scene_room_19_triggers ]
C:/Users/Henri/AppData/Local/Temp/_gbsbuild/obj/scene_room_19.rel
                                          [ scene_room_19 ]
C:/Users/Henri/AppData/Local/Temp/_gbsbuild/obj/scene_room_20_collisions.rel
                                          [ scene_room_20_collisions ]
C:/Users/Henri/AppData/Local/Temp/_gbsbuild/obj/scene_room_20_init.rel
                                          [ scene_room_20_init ]
C:/Users/Henri/AppData/Local/Temp/_gbsbuild/obj/scene_room_20.rel
                                          [ scene_room_20 ]
C:/Users/Henri/AppData/Local/Temp/_gbsbuild/obj/scene_room_21_collisions.rel
                                          [ scene_room_21_collisions ]
C:/Users/Henri/AppData/Local/Temp/_gbsbuild/obj/scene_room_21_init.rel
                                          [ scene_room_21_init ]
C:/Users/Henri/AppData/Local/Temp/_gbsbuild/obj/scene_room_21.rel
                                          [ scene_room_21 ]
C:/Users/Henri/AppData/Local/Temp/_gbsbuild/obj/scene_room_22_collisions.rel
                                          [ scene_room_22_collisions ]
C:/Users/Henri/AppData/Local/Temp/_gbsbuild/obj/scene_room_22_init.rel
                                          [ scene_room_22_init ]
C:/Users/Henri/AppData/Local/Temp/_gbsbuild/obj/scene_room_22.rel
                                          [ scene_room_22 ]
C:/Users/Henri/AppData/Local/Temp/_gbsbuild/obj/scene_room_23_collisions.rel
                                          [ scene_room_23_collisions ]
C:/Users/Henri/AppData/Local/Temp/_gbsbuild/obj/scene_room_23_init.rel
                                          [ scene_room_23_init ]
C:/Users/Henri/AppData/Local/Temp/_gbsbuild/obj/scene_room_23.rel
                                          [ scene_room_23 ]
C:/Users/Henri/AppData/Local/Temp/_gbsbuild/obj/scene_room_24_collisions.rel
                                          [ scene_room_24_collisions ]
C:/Users/Henri/AppData/Local/Temp/_gbsbuild/obj/scene_room_24_init.rel
                                          [ scene_room_24_init ]
C:/Users/Henri/AppData/Local/Temp/_gbsbuild/obj/scene_room_24.rel
                                          [ scene_room_24 ]
C:/Users/Henri/AppData/Local/Temp/_gbsbuild/obj/scene_room_25_collisions.rel
                                          [ scene_room_25_collisions ]
C:/Users/Henri/AppData/Local/Temp/_gbsbuild/obj/scene_room_25_init.rel
                                          [ scene_room_25_init ]
C:/Users/Henri/AppData/Local/Temp/_gbsbuild/obj/scene_room_25.rel
                                          [ scene_room_25 ]
C:/Users/Henri/AppData/Local/Temp/_gbsbuild/obj/script_10.rel
                                          [ script_10 ]
C:/Users/Henri/AppData/Local/Temp/_gbsbuild/obj/script_7.rel
                                          [ script_7 ]
C:/Users/Henri/AppData/Local/Temp/_gbsbuild/obj/script_8.rel
                                          [ script_8 ]
C:/Users/Henri/AppData/Local/Temp/_gbsbuild/obj/script_add_menu_to_overworl.rel
                                          [ script_add_menu_to_overworl ]
C:/Users/Henri/AppData/Local/Temp/_gbsbuild/obj/script_engine_init.rel
                                          [  ]
C:/Users/Henri/AppData/Local/Temp/_gbsbuild/obj/script_enter_battle.rel
                                          [ script_enter_battle ]
C:/Users/Henri/AppData/Local/Temp/_gbsbuild/obj/script_input_0.rel
                                          [ script_input_0 ]
C:/Users/Henri/AppData/Local/Temp/_gbsbuild/obj/script_input_1.rel
                                          [ script_input_1 ]
C:/Users/Henri/AppData/Local/Temp/_gbsbuild/obj/script_input_2.rel
                                          [ script_input_2 ]
C:/Users/Henri/AppData/Local/Temp/_gbsbuild/obj/script_input_3.rel
                                          [ script_input_3 ]
C:/Users/Henri/AppData/Local/Temp/_gbsbuild/obj/script_input_4.rel
                                          [ script_input_4 ]
C:/Users/Henri/AppData/Local/Temp/_gbsbuild/obj/script_input_5.rel
                                          [ script_input_5 ]
C:/Users/Henri/AppData/Local/Temp/_gbsbuild/obj/script_input_6.rel
                                          [ script_input_6 ]
C:/Users/Henri/AppData/Local/Temp/_gbsbuild/obj/script_refresh_battle_ui.rel
                                          [ script_refresh_battle_ui ]
C:/Users/Henri/AppData/Local/Temp/_gbsbuild/obj/script_speech_bubble_test.rel
                                          [ script_speech_bubble_test ]
C:/Users/Henri/AppData/Local/Temp/_gbsbuild/obj/sprite_battleui_tileset.rel
                                          [ sprite_battleui_tileset ]
C:/Users/Henri/AppData/Local/Temp/_gbsbuild/obj/sprite_battleui.rel
                                          [ sprite_battleui ]
C:/Users/Henri/AppData/Local/Temp/_gbsbuild/obj/sprite_battleuidebug_tileset.rel
                                          [ sprite_battleuidebug_tileset ]
C:/Users/Henri/AppData/Local/Temp/_gbsbuild/obj/sprite_battleuidebug.rel
                                          [ sprite_battleuidebug ]
C:/Users/Henri/AppData/Local/Temp/_gbsbuild/obj/sprite_blooky_tileset.rel
                                          [ sprite_blooky_tileset ]
C:/Users/Henri/AppData/Local/Temp/_gbsbuild/obj/sprite_blooky.rel
                                          [ sprite_blooky ]
C:/Users/Henri/AppData/Local/Temp/_gbsbuild/obj/sprite_candy_tileset.rel
                                          [ sprite_candy_tileset ]
C:/Users/Henri/AppData/Local/Temp/_gbsbuild/obj/sprite_candy.rel
                                          [ sprite_candy ]
C:/Users/Henri/AppData/Local/Temp/_gbsbuild/obj/sprite_dummy_tileset.rel
                                          [ sprite_dummy_tileset ]
C:/Users/Henri/AppData/Local/Temp/_gbsbuild/obj/sprite_dummy.rel
                                          [ sprite_dummy ]
C:/Users/Henri/AppData/Local/Temp/_gbsbuild/obj/sprite_empty_tileset.rel
                                          [ sprite_empty_tileset ]
C:/Users/Henri/AppData/Local/Temp/_gbsbuild/obj/sprite_empty.rel
                                          [ sprite_empty ]
C:/Users/Henri/AppData/Local/Temp/_gbsbuild/obj/sprite_flowey_tileset.rel
                                          [ sprite_flowey_tileset ]
C:/Users/Henri/AppData/Local/Temp/_gbsbuild/obj/sprite_flowey.rel
                                          [ sprite_flowey ]
C:/Users/Henri/AppData/Local/Temp/_gbsbuild/obj/sprite_froggit_overworld__tileset.rel
                                          [ sprite_froggit_overworld__tilese ]
C:/Users/Henri/AppData/Local/Temp/_gbsbuild/obj/sprite_froggit_overworld_.rel
                                          [ sprite_froggit_overworld_ ]
C:/Users/Henri/AppData/Local/Temp/_gbsbuild/obj/sprite_groundswitchround_tileset.rel
                                          [ sprite_groundswitchround_tileset ]
C:/Users/Henri/AppData/Local/Temp/_gbsbuild/obj/sprite_groundswitchround.rel
                                          [ sprite_groundswitchround ]
C:/Users/Henri/AppData/Local/Temp/_gbsbuild/obj/sprite_heart_tileset.rel
                                          [ sprite_heart_tileset ]
C:/Users/Henri/AppData/Local/Temp/_gbsbuild/obj/sprite_heart.rel
                                          [ sprite_heart ]
C:/Users/Henri/AppData/Local/Temp/_gbsbuild/obj/sprite_player_tileset.rel
                                          [ sprite_player_tileset ]
C:/Users/Henri/AppData/Local/Temp/_gbsbuild/obj/sprite_player.rel
                                          [ sprite_player ]
C:/Users/Henri/AppData/Local/Temp/_gbsbuild/obj/sprite_rock_tileset.rel
                                          [ sprite_rock_tileset ]
C:/Users/Henri/AppData/Local/Temp/_gbsbuild/obj/sprite_rock.rel
                                          [ sprite_rock ]
C:/Users/Henri/AppData/Local/Temp/_gbsbuild/obj/sprite_sign_tileset.rel
                                          [ sprite_sign_tileset ]
C:/Users/Henri/AppData/Local/Temp/_gbsbuild/obj/sprite_sign.rel
                                          [ sprite_sign ]
C:/Users/Henri/AppData/Local/Temp/_gbsbuild/obj/sprite_spikes_tileset.rel
                                          [ sprite_spikes_tileset ]
C:/Users/Henri/AppData/Local/Temp/_gbsbuild/obj/sprite_spikes.rel
                                          [ sprite_spikes ]
C:/Users/Henri/AppData/Local/Temp/_gbsbuild/obj/sprite_star_tileset.rel
                                          [ sprite_star_tileset ]
C:/Users/Henri/AppData/Local/Temp/_gbsbuild/obj/sprite_star.rel
                                          [ sprite_star ]
C:/Users/Henri/AppData/Local/Temp/_gbsbuild/obj/sprite_wallswitch_tileset.rel
                                          [ sprite_wallswitch_tileset ]
C:/Users/Henri/AppData/Local/Temp/_gbsbuild/obj/sprite_wallswitch.rel
                                          [ sprite_wallswitch ]
C:/Users/Henri/AppData/Local/Temp/_gbsbuild/obj/spritesheet_none.rel
                                          [ spritesheet_none ]
C:/Users/Henri/AppData/Local/Temp/_gbsbuild/obj/trigger_0_interact.rel
                                          [ trigger_0_interact ]
C:/Users/Henri/AppData/Local/Temp/_gbsbuild/obj/trigger_1_interact.rel
                                          [ trigger_1_interact ]
C:/Users/Henri/AppData/Local/Temp/_gbsbuild/obj/trigger_10_interact.rel
                                          [ trigger_10_interact ]
C:/Users/Henri/AppData/Local/Temp/_gbsbuild/obj/trigger_11_interact.rel
                                          [ trigger_11_interact ]
C:/Users/Henri/AppData/Local/Temp/_gbsbuild/obj/trigger_12_interact.rel
                                          [ trigger_12_interact ]
C:/Users/Henri/AppData/Local/Temp/_gbsbuild/obj/trigger_13_interact.rel
                                          [ trigger_13_interact ]
C:/Users/Henri/AppData/Local/Temp/_gbsbuild/obj/trigger_14_interact.rel
                                          [ trigger_14_interact ]
C:/Users/Henri/AppData/Local/Temp/_gbsbuild/obj/trigger_15_interact.rel
                                          [ trigger_15_interact ]
C:/Users/Henri/AppData/Local/Temp/_gbsbuild/obj/trigger_16_interact.rel
                                          [ trigger_16_interact ]
C:/Users/Henri/AppData/Local/Temp/_gbsbuild/obj/trigger_17_interact.rel
                                          [ trigger_17_interact ]
C:/Users/Henri/AppData/Local/Temp/_gbsbuild/obj/trigger_18_interact.rel
                                          [ trigger_18_interact ]
C:/Users/Henri/AppData/Local/Temp/_gbsbuild/obj/trigger_19_interact.rel
                                          [ trigger_19_interact ]
C:/Users/Henri/AppData/Local/Temp/_gbsbuild/obj/trigger_2_interact.rel
                                          [ trigger_2_interact ]
C:/Users/Henri/AppData/Local/Temp/_gbsbuild/obj/trigger_20_interact.rel
                                          [ trigger_20_interact ]
C:/Users/Henri/AppData/Local/Temp/_gbsbuild/obj/trigger_21_interact.rel
                                          [ trigger_21_interact ]
C:/Users/Henri/AppData/Local/Temp/_gbsbuild/obj/trigger_22_interact.rel
                                          [ trigger_22_interact ]
C:/Users/Henri/AppData/Local/Temp/_gbsbuild/obj/trigger_23_interact.rel
                                          [ trigger_23_interact ]
C:/Users/Henri/AppData/Local/Temp/_gbsbuild/obj/trigger_24_interact.rel
                                          [ trigger_24_interact ]
C:/Users/Henri/AppData/Local/Temp/_gbsbuild/obj/trigger_25_interact.rel
                                          [ trigger_25_interact ]
C:/Users/Henri/AppData/Local/Temp/_gbsbuild/obj/trigger_26_interact.rel
                                          [ trigger_26_interact ]
C:/Users/Henri/AppData/Local/Temp/_gbsbuild/obj/trigger_27_interact.rel
                                          [ trigger_27_interact ]
C:/Users/Henri/AppData/Local/Temp/_gbsbuild/obj/trigger_28_interact.rel
                                          [ trigger_28_interact ]
C:/Users/Henri/AppData/Local/Temp/_gbsbuild/obj/trigger_29_interact.rel
                                          [ trigger_29_interact ]
C:/Users/Henri/AppData/Local/Temp/_gbsbuild/obj/trigger_3_interact.rel
                                          [ trigger_3_interact ]
C:/Users/Henri/AppData/Local/Temp/_gbsbuild/obj/trigger_30_interact.rel
                                          [ trigger_30_interact ]
C:/Users/Henri/AppData/Local/Temp/_gbsbuild/obj/trigger_31_interact.rel
                                          [ trigger_31_interact ]
C:/Users/Henri/AppData/Local/Temp/_gbsbuild/obj/trigger_32_interact.rel
                                          [ trigger_32_interact ]
C:/Users/Henri/AppData/Local/Temp/_gbsbuild/obj/trigger_33_interact.rel
                                          [ trigger_33_interact ]
C:/Users/Henri/AppData/Local/Temp/_gbsbuild/obj/trigger_34_interact.rel
                                          [ trigger_34_interact ]
C:/Users/Henri/AppData/Local/Temp/_gbsbuild/obj/trigger_35_interact.rel
                                          [ trigger_35_interact ]
C:/Users/Henri/AppData/Local/Temp/_gbsbuild/obj/trigger_36_interact.rel
                                          [ trigger_36_interact ]
C:/Users/Henri/AppData/Local/Temp/_gbsbuild/obj/trigger_38_interact.rel
                                          [ trigger_38_interact ]
C:/Users/Henri/AppData/Local/Temp/_gbsbuild/obj/trigger_39_interact.rel
                                          [ trigger_39_interact ]
C:/Users/Henri/AppData/Local/Temp/_gbsbuild/obj/trigger_4_interact.rel
                                          [ trigger_4_interact ]
C:/Users/Henri/AppData/Local/Temp/_gbsbuild/obj/trigger_40_interact.rel
                                          [ trigger_40_interact ]
C:/Users/Henri/AppData/Local/Temp/_gbsbuild/obj/trigger_41_interact.rel
                                          [ trigger_41_interact ]
C:/Users/Henri/AppData/Local/Temp/_gbsbuild/obj/trigger_42_interact.rel
                                          [ trigger_42_interact ]
C:/Users/Henri/AppData/Local/Temp/_gbsbuild/obj/trigger_43_interact.rel
                                          [ trigger_43_interact ]
C:/Users/Henri/AppData/Local/Temp/_gbsbuild/obj/trigger_44_interact.rel
                                          [ trigger_44_interact ]
C:/Users/Henri/AppData/Local/Temp/_gbsbuild/obj/trigger_45_interact.rel
                                          [ trigger_45_interact ]
C:/Users/Henri/AppData/Local/Temp/_gbsbuild/obj/trigger_46_interact.rel
                                          [ trigger_46_interact ]
C:/Users/Henri/AppData/Local/Temp/_gbsbuild/obj/trigger_47_interact.rel
                                          [ trigger_47_interact ]
C:/Users/Henri/AppData/Local/Temp/_gbsbuild/obj/trigger_48_interact.rel
                                          [ trigger_48_interact ]
C:/Users/Henri/AppData/Local/Temp/_gbsbuild/obj/trigger_49_interact.rel
                                          [ trigger_49_interact ]
C:/Users/Henri/AppData/Local/Temp/_gbsbuild/obj/trigger_5_interact.rel
                                          [ trigger_5_interact ]
C:/Users/Henri/AppData/Local/Temp/_gbsbuild/obj/trigger_50_interact.rel
                                          [ trigger_50_interact ]
C:/Users/Henri/AppData/Local/Temp/_gbsbuild/obj/trigger_51_interact.rel
                                          [ trigger_51_interact ]
C:/Users/Henri/AppData/Local/Temp/_gbsbuild/obj/trigger_52_interact.rel
                                          [ trigger_52_interact ]
C:/Users/Henri/AppData/Local/Temp/_gbsbuild/obj/trigger_53_interact.rel
                                          [ trigger_53_interact ]
C:/Users/Henri/AppData/Local/Temp/_gbsbuild/obj/trigger_54_interact.rel
                                          [ trigger_54_interact ]
C:/Users/Henri/AppData/Local/Temp/_gbsbuild/obj/trigger_55_interact.rel
                                          [ trigger_55_interact ]
C:/Users/Henri/AppData/Local/Temp/_gbsbuild/obj/trigger_56_interact.rel
                                          [ trigger_56_interact ]
C:/Users/Henri/AppData/Local/Temp/_gbsbuild/obj/trigger_6_interact.rel
                                          [ trigger_6_interact ]
C:/Users/Henri/AppData/Local/Temp/_gbsbuild/obj/trigger_7_interact.rel
                                          [ trigger_7_interact ]
C:/Users/Henri/AppData/Local/Temp/_gbsbuild/obj/trigger_8_interact.rel
                                          [ trigger_8_interact ]
C:/Users/Henri/AppData/Local/Temp/_gbsbuild/obj/trigger_9_interact.rel
                                          [ trigger_9_interact ]
C:/Users/Henri/AppData/Local/Temp/_gbsbuild/obj/main.rel
                                          [ main ]
C:/Users/Henri/AppData/Local/Temp/_gbsbuild/obj/adventure.rel
                                          [ adventure ]
C:/Users/Henri/AppData/Local/Temp/_gbsbuild/obj/logo.rel
                                          [ logo ]
C:/Users/Henri/AppData/Local/Temp/_gbsbuild/obj/platform.rel
                                          [ platform ]
C:/Users/Henri/AppData/Local/Temp/_gbsbuild/obj/pointnclick.rel
                                          [ pointnclick ]
C:/Users/Henri/AppData/Local/Temp/_gbsbuild/obj/shmup.rel
                                          [ shmup ]
C:/Users/Henri/AppData/Local/Temp/_gbsbuild/obj/states_ptrs.rel
                                          [  ]
C:/Users/Henri/AppData/Local/Temp/_gbsbuild/obj/topdown.rel
                                          [ topdown ]


Libraries Linked                          [ object file ]

C:\Users\Henri\AppData\Local\Temp/_gbstools/gbdk/lib/small/asxxxx/gb/gb.lib
                                          [ fill_rect_wi.o ]
C:\Users\Henri\AppData\Local\Temp/_gbstools/gbdk/lib/small/asxxxx/gbz80/gbz80.lib
                                          [ rand.o ]
lib/hUGEDriver.lib                        [ hUGEDriver.obj.o ]
C:\Users\Henri\AppData\Local\Temp/_gbstools/gbdk/lib/small/asxxxx/gb/gb.lib
                                          [ sfr.o ]
C:\Users\Henri\AppData\Local\Temp/_gbstools/gbdk/lib/small/asxxxx/gb/gb.lib
                                          [ get_data.o ]
C:\Users\Henri\AppData\Local\Temp/_gbstools/gbdk/lib/small/asxxxx/gb/gb.lib
                                          [ get_tile.o ]
C:\Users\Henri\AppData\Local\Temp/_gbstools/gbdk/lib/small/asxxxx/gb/gb.lib
                                          [ cgb_palettes.o ]
C:\Users\Henri\AppData\Local\Temp/_gbstools/gbdk/lib/small/asxxxx/gb/gb.lib
                                          [ metasprites_hide_spr.o ]
C:\Users\Henri\AppData\Local\Temp/_gbstools/gbdk/lib/small/asxxxx/gbz80/gbz80.lib
                                          [ mul.o ]
C:\Users\Henri\AppData\Local\Temp/_gbstools/gbdk/lib/small/asxxxx/gbz80/gbz80.lib
                                          [ abs.o ]
C:\Users\Henri\AppData\Local\Temp/_gbstools/gbdk/lib/small/asxxxx/gb/gb.lib
                                          [ set_wi_t.o ]
C:\Users\Henri\AppData\Local\Temp/_gbstools/gbdk/lib/small/asxxxx/gb/gb.lib
                                          [ set_data.o ]
C:\Users\Henri\AppData\Local\Temp/_gbstools/gbdk/lib/small/asxxxx/gbz80/gbz80.lib
                                          [ reverse.o ]
C:\Users\Henri\AppData\Local\Temp/_gbstools/gbdk/lib/small/asxxxx/gb/gb.lib
                                          [ far_ptr.o ]
C:\Users\Henri\AppData\Local\Temp/_gbstools/gbdk/lib/small/asxxxx/gb/gb.lib
                                          [ sgb.o ]
C:\Users\Henri\AppData\Local\Temp/_gbstools/gbdk/lib/small/asxxxx/gb/gb.lib
                                          [ lcd.o ]
C:\Users\Henri\AppData\Local\Temp/_gbstools/gbdk/lib/small/asxxxx/gb/gb.lib
                                          [ fill_rect.o ]
C:\Users\Henri\AppData\Local\Temp/_gbstools/gbdk/lib/small/asxxxx/gb/gb.lib
                                          [ cpy_data.o ]
C:\Users\Henri\AppData\Local\Temp/_gbstools/gbdk/lib/small/asxxxx/gb/gb.lib
                                          [ fill_rect_bk.o ]
C:\Users\Henri\AppData\Local\Temp/_gbstools/gbdk/lib/small/asxxxx/gb/gb.lib
                                          [ pad.o ]
C:\Users\Henri\AppData\Local\Temp/_gbstools/gbdk/lib/small/asxxxx/gb/gb.lib
                                          [ metasprites.o ]
C:\Users\Henri\AppData\Local\Temp/_gbstools/gbdk/lib/small/asxxxx/gbz80/gbz80.lib
                                          [ __sdcc_call_hl.o ]
C:\Users\Henri\AppData\Local\Temp/_gbstools/gbdk/lib/small/asxxxx/gbz80/gbz80.lib
                                          [ _memcpy.o ]
C:\Users\Henri\AppData\Local\Temp/_gbstools/gbdk/lib/small/asxxxx/gbz80/gbz80.lib
                                          [ _memset.o ]
C:\Users\Henri\AppData\Local\Temp/_gbstools/gbdk/lib/small/asxxxx/gb/gb.lib
                                          [ set_xy_t.o ]
C:\Users\Henri\AppData\Local\Temp/_gbstools/gbdk/lib/small/asxxxx/gb/gb.lib
                                          [ cgb.o ]
C:\Users\Henri\AppData\Local\Temp/_gbstools/gbdk/lib/small/asxxxx/gbz80/gbz80.lib
                                          [ div.o ]
C:\Users\Henri\AppData\Local\Temp/_gbstools/gbdk/lib/small/asxxxx/gb/gb.lib
                                          [ set_bk_t.o ]

ASxxxx Linker V03.00 + NoICE + sdld,  page 92.

User Base Address Definitions

_DATA=0xC0A0
_CODE=0x0200
ASxxxx Linker V03.00 + NoICE + sdld,  page 93.

User Global Definitions

.STACK=0xDF00
_shadow_OAM=0xC000
.refresh_OAM=0xFF80
__start_save=28

